Archive member included because of file (symbol)

/opt/microchip/mplabc32/v2.02/bin/../lib/gcc/pic32mx/4.5.1/libgcc.a(_udivdi3.o)
                              build/Debug/debug/_ext/867694782/Tick.o (__udivdi3)
/opt/microchip/mplabc32/v2.02/bin/../lib/gcc/pic32mx/4.5.1/libgcc.a(floatunsisf.o)
                              build/Debug/debug/_ext/1472/HodoCrate.o (__floatunsisf)
/opt/microchip/mplabc32/v2.02/bin/../lib/gcc/pic32mx/4.5.1/../../../../pic32mx/lib/libdebug.a(db_utils.o)
                              build/Debug/debug/_ext/1472/main.o (_pic32mxsk_init)
/opt/microchip/mplabc32/v2.02/bin/../lib/gcc/pic32mx/4.5.1/../../../../pic32mx/lib/libc.a(memcmp.o)
                              build/Debug/debug/_ext/867694782/ETHPIC32IntMac.o (memcmp)
/opt/microchip/mplabc32/v2.02/bin/../lib/gcc/pic32mx/4.5.1/../../../../pic32mx/lib/libc.a(memcpy.o)
                              build/Debug/debug/_ext/867694782/Announce.o (memcpy)
/opt/microchip/mplabc32/v2.02/bin/../lib/gcc/pic32mx/4.5.1/../../../../pic32mx/lib/libc.a(memset.o)
                              build/Debug/debug/_ext/867694782/BerkeleyAPI.o (memset)
/opt/microchip/mplabc32/v2.02/bin/../lib/gcc/pic32mx/4.5.1/../../../../pic32mx/lib/libc.a(strcmp.o)
                              build/Debug/debug/_ext/1472/main.o (strcmp)
/opt/microchip/mplabc32/v2.02/bin/../lib/gcc/pic32mx/4.5.1/../../../../pic32mx/lib/libc.a(strcpy.o)
                              build/Debug/debug/_ext/1472/main.o (strcpy)
/opt/microchip/mplabc32/v2.02/bin/../lib/gcc/pic32mx/4.5.1/../../../../pic32mx/lib/libc.a(strlen.o)
                              build/Debug/debug/_ext/867694782/UDP.o (strlen)
/opt/microchip/mplabc32/v2.02/bin/../lib/gcc/pic32mx/4.5.1/../../../../pic32mx/lib/libc.a(general-exception.o)
                              /opt/microchip/mplabc32/v2.02/bin/../lib/gcc/pic32mx/4.5.1/../../../../pic32mx/lib/crt0.o (_general_exception_context)
/opt/microchip/mplabc32/v2.02/bin/../lib/gcc/pic32mx/4.5.1/../../../../pic32mx/lib/libc.a(atoi.o)
                              build/Debug/debug/_ext/1472/main.o (atoi)
/opt/microchip/mplabc32/v2.02/bin/../lib/gcc/pic32mx/4.5.1/../../../../pic32mx/lib/libc.a(c32_uart.o)
                              /opt/microchip/mplabc32/v2.02/bin/../lib/gcc/pic32mx/4.5.1/../../../../pic32mx/lib/libdebug.a(db_utils.o) (__C32_UART)
/opt/microchip/mplabc32/v2.02/bin/../lib/gcc/pic32mx/4.5.1/../../../../pic32mx/lib/libc.a(ctype.o)
                              /opt/microchip/mplabc32/v2.02/bin/../lib/gcc/pic32mx/4.5.1/../../../../pic32mx/lib/libc.a(atoi.o) (_ctype)
/opt/microchip/mplabc32/v2.02/bin/../lib/gcc/pic32mx/4.5.1/../../../../pic32mx/lib/libc.a(malloc.o)
                              build/Debug/debug/_ext/1472/main.o (malloc)
/opt/microchip/mplabc32/v2.02/bin/../lib/gcc/pic32mx/4.5.1/../../../../pic32mx/lib/libc.a(puts.o)
                              build/Debug/debug/_ext/867694782/TFTPc.o (puts)
/opt/microchip/mplabc32/v2.02/bin/../lib/gcc/pic32mx/4.5.1/../../../../pic32mx/lib/libc.a(rand.o)
                              build/Debug/debug/_ext/867694782/StackTsk.o (srand)
/opt/microchip/mplabc32/v2.02/bin/../lib/gcc/pic32mx/4.5.1/../../../../pic32mx/lib/libc.a(strtok.o)
                              build/Debug/debug/_ext/1472/main.o (strtok)
/opt/microchip/mplabc32/v2.02/bin/../lib/gcc/pic32mx/4.5.1/../../../../pic32mx/lib/libc.a(printf_cdnopsuxX.eo)
                              build/Debug/debug/_ext/1472/main.o (_printf_cdnopsuxX)
/opt/microchip/mplabc32/v2.02/bin/../lib/gcc/pic32mx/4.5.1/../../../../pic32mx/lib/libc.a(printf_cdnopuxX.eo)
                              build/Debug/debug/_ext/867694782/TFTPc.o (_printf_cdnopuxX)
/opt/microchip/mplabc32/v2.02/bin/../lib/gcc/pic32mx/4.5.1/../../../../pic32mx/lib/libc.a(printf_s.eo)
                              build/Debug/debug/_ext/867694782/TFTPc.o (_printf_0)
/opt/microchip/mplabc32/v2.02/bin/../lib/gcc/pic32mx/4.5.1/../../../../pic32mx/lib/libc.a(sprintf_cdfFnopsuxX.eo)
                              build/Debug/debug/_ext/1472/main.o (_sprintf_cdfFnopsuxX)
/opt/microchip/mplabc32/v2.02/bin/../lib/gcc/pic32mx/4.5.1/../../../../pic32mx/lib/libc.a(sprintf_cdnopsuxX.eo)
                              build/Debug/debug/_ext/1472/Settings.o (_sprintf_cdnopsuxX)
/opt/microchip/mplabc32/v2.02/bin/../lib/gcc/pic32mx/4.5.1/../../../../pic32mx/lib/libc.a(sprintf_cdnopuxX.eo)
                              build/Debug/debug/_ext/1472/main.o (_sprintf_cdnopuxX)
/opt/microchip/mplabc32/v2.02/bin/../lib/gcc/pic32mx/4.5.1/../../../../pic32mx/lib/libc.a(sbrk.o)
                              /opt/microchip/mplabc32/v2.02/bin/../lib/gcc/pic32mx/4.5.1/../../../../pic32mx/lib/libc.a(malloc.o) (sbrk)
/opt/microchip/mplabc32/v2.02/bin/../lib/gcc/pic32mx/4.5.1/../../../../pic32mx/lib/libc.a(default-bootstrap-exception-handler.o)
                              /opt/microchip/mplabc32/v2.02/bin/../lib/gcc/pic32mx/4.5.1/../../../../pic32mx/lib/crt0.o (_bootstrap_exception_handler)
/opt/microchip/mplabc32/v2.02/bin/../lib/gcc/pic32mx/4.5.1/../../../../pic32mx/lib/libc.a(default-on-reset.o)
                              /opt/microchip/mplabc32/v2.02/bin/../lib/gcc/pic32mx/4.5.1/../../../../pic32mx/lib/crt0.o (_on_reset)
/opt/microchip/mplabc32/v2.02/bin/../lib/gcc/pic32mx/4.5.1/../../../../pic32mx/lib/libc.a(default-on-bootstrap.o)
                              /opt/microchip/mplabc32/v2.02/bin/../lib/gcc/pic32mx/4.5.1/../../../../pic32mx/lib/crt0.o (_on_bootstrap)
/opt/microchip/mplabc32/v2.02/bin/../lib/gcc/pic32mx/4.5.1/../../../../pic32mx/lib/libc.a(default-nmi-handler.o)
                              /opt/microchip/mplabc32/v2.02/bin/../lib/gcc/pic32mx/4.5.1/../../../../pic32mx/lib/crt0.o (_nmi_handler)
/opt/microchip/mplabc32/v2.02/bin/../lib/gcc/pic32mx/4.5.1/../../../../pic32mx/lib/libc.a(_iob.o)
                              /opt/microchip/mplabc32/v2.02/bin/../lib/gcc/pic32mx/4.5.1/../../../../pic32mx/lib/libc.a(puts.o) (_iob)
/opt/microchip/mplabc32/v2.02/bin/../lib/gcc/pic32mx/4.5.1/../../../../pic32mx/lib/libc.a(_fputc_simple.o)
                              /opt/microchip/mplabc32/v2.02/bin/../lib/gcc/pic32mx/4.5.1/../../../../pic32mx/lib/libc.a(puts.o) (fputc)
/opt/microchip/mplabc32/v2.02/bin/../lib/gcc/pic32mx/4.5.1/../../../../pic32mx/lib/libc.a(errno.o)
                              /opt/microchip/mplabc32/v2.02/bin/../lib/gcc/pic32mx/4.5.1/../../../../pic32mx/lib/libc.a(sbrk.o) (errno)
/opt/microchip/mplabc32/v2.02/bin/../lib/gcc/pic32mx/4.5.1/../../../../pic32mx/lib/libc.a(strcspn.o)
                              /opt/microchip/mplabc32/v2.02/bin/../lib/gcc/pic32mx/4.5.1/../../../../pic32mx/lib/libc.a(strtok.o) (strcspn)
/opt/microchip/mplabc32/v2.02/bin/../lib/gcc/pic32mx/4.5.1/../../../../pic32mx/lib/libc.a(strspn.o)
                              /opt/microchip/mplabc32/v2.02/bin/../lib/gcc/pic32mx/4.5.1/../../../../pic32mx/lib/libc.a(strtok.o) (strspn)
/opt/microchip/mplabc32/v2.02/bin/../lib/gcc/pic32mx/4.5.1/../../../../pic32mx/lib/libc.a(doprnt_cdfFnopsuxX.eo)
                              /opt/microchip/mplabc32/v2.02/bin/../lib/gcc/pic32mx/4.5.1/../../../../pic32mx/lib/libc.a(sprintf_cdfFnopsuxX.eo) (_vfprintf_cdfFnopsuxX)
/opt/microchip/mplabc32/v2.02/bin/../lib/gcc/pic32mx/4.5.1/../../../../pic32mx/lib/libc.a(doprnt_cdnopsuxX.eo)
                              /opt/microchip/mplabc32/v2.02/bin/../lib/gcc/pic32mx/4.5.1/../../../../pic32mx/lib/libc.a(printf_cdnopsuxX.eo) (_vfprintf_cdnopsuxX)
/opt/microchip/mplabc32/v2.02/bin/../lib/gcc/pic32mx/4.5.1/../../../../pic32mx/lib/libc.a(doprnt_cdnopuxX.eo)
                              /opt/microchip/mplabc32/v2.02/bin/../lib/gcc/pic32mx/4.5.1/../../../../pic32mx/lib/libc.a(printf_cdnopuxX.eo) (_vfprintf_cdnopuxX)
/opt/microchip/mplabc32/v2.02/bin/../lib/gcc/pic32mx/4.5.1/../../../../pic32mx/lib/libc.a(doprnt_s.eo)
                              /opt/microchip/mplabc32/v2.02/bin/../lib/gcc/pic32mx/4.5.1/../../../../pic32mx/lib/libc.a(printf_s.eo) (_vfprintf_s)
/opt/microchip/mplabc32/v2.02/bin/../lib/gcc/pic32mx/4.5.1/../../../../pic32mx/lib/libc.a(write.o)
                              /opt/microchip/mplabc32/v2.02/bin/../lib/gcc/pic32mx/4.5.1/../../../../pic32mx/lib/libc.a(_fputc_simple.o) (write)
/opt/microchip/mplabc32/v2.02/bin/../lib/gcc/pic32mx/4.5.1/../../../../pic32mx/lib/libc.a(_flsbuf_simple.o)
                              /opt/microchip/mplabc32/v2.02/bin/../lib/gcc/pic32mx/4.5.1/../../../../pic32mx/lib/libc.a(_fputc_simple.o) (_flsbuf)
/opt/microchip/mplabc32/v2.02/bin/../lib/gcc/pic32mx/4.5.1/../../../../pic32mx/lib/libc.a(powers.o)
                              /opt/microchip/mplabc32/v2.02/bin/../lib/gcc/pic32mx/4.5.1/../../../../pic32mx/lib/libc.a(doprnt_cdfFnopsuxX.eo) (_powers_f)
/opt/microchip/mplabc32/v2.02/bin/../lib/gcc/pic32mx/4.5.1/../../../../pic32mx/lib/libc.a(strchr.o)
                              /opt/microchip/mplabc32/v2.02/bin/../lib/gcc/pic32mx/4.5.1/../../../../pic32mx/lib/libc.a(strcspn.o) (strchr)
/opt/microchip/mplabc32/v2.02/bin/../lib/gcc/pic32mx/4.5.1/../../../../pic32mx/lib/libm.a(fpmod32.o)
                              /opt/microchip/mplabc32/v2.02/bin/../lib/gcc/pic32mx/4.5.1/../../../../pic32mx/lib/libc.a(doprnt_cdfFnopsuxX.eo) (frexpf)
/opt/microchip/mplabc32/v2.02/bin/../lib/gcc/pic32mx/4.5.1/../../../../pic32mx/lib/libm.a(fp32.o)
                              /opt/microchip/mplabc32/v2.02/bin/../lib/gcc/pic32mx/4.5.1/../../../../pic32mx/lib/libc.a(doprnt_cdfFnopsuxX.eo) (fpsub)
/opt/microchip/mplabc32/v2.02/bin/../lib/gcc/pic32mx/4.5.1/../../../../pic32mx/lib/libe.a(_floatdisf.o)
                              /opt/microchip/mplabc32/v2.02/bin/../lib/gcc/pic32mx/4.5.1/../../../../pic32mx/lib/libc.a(doprnt_cdfFnopsuxX.eo) (__floatdisf)
/opt/microchip/mplabc32/v2.02/bin/../lib/gcc/pic32mx/4.5.1/../../../../pic32mx/lib/libmchp_peripheral.a(read_core_timer_lib.o)
                              build/Debug/debug/_ext/867694782/ETHPIC32ExtPhy.o (ReadCoreTimer)
/opt/microchip/mplabc32/v2.02/bin/../lib/gcc/pic32mx/4.5.1/../../../../pic32mx/lib/libmchp_peripheral_32MX795F512L.a(eth_ack_packet_lib.o)
                              build/Debug/debug/_ext/867694782/ETHPIC32IntMac.o (EthRxAckBuffer)
/opt/microchip/mplabc32/v2.02/bin/../lib/gcc/pic32mx/4.5.1/../../../../pic32mx/lib/libmchp_peripheral_32MX795F512L.a(eth_descriptors_add_lib.o)
                              /opt/microchip/mplabc32/v2.02/bin/../lib/gcc/pic32mx/4.5.1/../../../../pic32mx/lib/libmchp_peripheral_32MX795F512L.a(eth_ack_packet_lib.o) (_EthRxBusyList)
/opt/microchip/mplabc32/v2.02/bin/../lib/gcc/pic32mx/4.5.1/../../../../pic32mx/lib/libmchp_peripheral_32MX795F512L.a(eth_init_lib.o)
                              build/Debug/debug/_ext/867694782/ETHPIC32IntMac.o (EthInit)
/opt/microchip/mplabc32/v2.02/bin/../lib/gcc/pic32mx/4.5.1/../../../../pic32mx/lib/libmchp_peripheral_32MX795F512L.a(eth_mac_open_lib.o)
                              build/Debug/debug/_ext/867694782/ETHPIC32IntMac.o (EthMACOpen)
/opt/microchip/mplabc32/v2.02/bin/../lib/gcc/pic32mx/4.5.1/../../../../pic32mx/lib/libmchp_peripheral_32MX795F512L.a(eth_mac_set_address_max_lib.o)
                              build/Debug/debug/_ext/867694782/ETHPIC32IntMac.o (EthMACSetAddress)
/opt/microchip/mplabc32/v2.02/bin/../lib/gcc/pic32mx/4.5.1/../../../../pic32mx/lib/libmchp_peripheral_32MX795F512L.a(eth_rx_buffers_append_lib.o)
                              build/Debug/debug/_ext/867694782/ETHPIC32IntMac.o (EthRxBuffersAppend)
/opt/microchip/mplabc32/v2.02/bin/../lib/gcc/pic32mx/4.5.1/../../../../pic32mx/lib/libmchp_peripheral_32MX795F512L.a(eth_rx_filters_lib.o)
                              build/Debug/debug/_ext/867694782/ETHPIC32IntMac.o (EthRxFiltersSet)
/opt/microchip/mplabc32/v2.02/bin/../lib/gcc/pic32mx/4.5.1/../../../../pic32mx/lib/libmchp_peripheral_32MX795F512L.a(eth_rx_get_packet_lib.o)
                              build/Debug/debug/_ext/867694782/ETHPIC32IntMac.o (EthRxGetBuffer)
/opt/microchip/mplabc32/v2.02/bin/../lib/gcc/pic32mx/4.5.1/../../../../pic32mx/lib/libmchp_peripheral_32MX795F512L.a(eth_rx_set_buffer_size_lib.o)
                              build/Debug/debug/_ext/867694782/ETHPIC32IntMac.o (EthRxSetBufferSize)
/opt/microchip/mplabc32/v2.02/bin/../lib/gcc/pic32mx/4.5.1/../../../../pic32mx/lib/libmchp_peripheral_32MX795F512L.a(eth_tx_packet_lib.o)
                              build/Debug/debug/_ext/867694782/ETHPIC32IntMac.o (EthTxSendBuffer)
/opt/microchip/mplabc32/v2.02/bin/../lib/gcc/pic32mx/4.5.1/../../../../pic32mx/lib/libmchp_peripheral_32MX795F512L.a(_eth_append_busy_list_lib.o)
                              /opt/microchip/mplabc32/v2.02/bin/../lib/gcc/pic32mx/4.5.1/../../../../pic32mx/lib/libmchp_peripheral_32MX795F512L.a(eth_ack_packet_lib.o) (_EthAppendBusyList)
/opt/microchip/mplabc32/v2.02/bin/../lib/gcc/pic32mx/4.5.1/../../../../pic32mx/lib/libmchp_peripheral_32MX795F512L.a(eth_miim_access.o)
                              build/Debug/debug/_ext/867694782/ETHPIC32ExtPhy.o (EthMIIMScanStart)
/opt/microchip/mplabc32/v2.02/bin/../lib/gcc/pic32mx/4.5.1/../../../../pic32mx/lib/libmchp_peripheral_32MX795F512L.a(eth_miim_legacy.o)
                              build/Debug/debug/_ext/867694782/ETHPIC32IntMac.o (EthMIIMInit)
/opt/microchip/mplabc32/v2.02/bin/../lib/gcc/pic32mx/4.5.1/../../../../pic32mx/lib/libmchp_peripheral_32MX795F512L.a(soft_reset_lib.o)
                              build/Debug/debug/_ext/1472/main.o (SoftReset)
/opt/microchip/mplabc32/v2.02/bin/../lib/gcc/pic32mx/4.5.1/../../../../pic32mx/lib/libmchp_peripheral_32MX795F512L.a(pcache.o)
                              build/Debug/debug/_ext/1472/main.o (CheKseg0CacheOn)
/opt/microchip/mplabc32/v2.02/bin/../lib/gcc/pic32mx/4.5.1/../../../../pic32mx/lib/libmchp_peripheral_32MX795F512L.a(int_disable_interrupts_lib.o)
                              build/Debug/debug/_ext/1472/main.o (INTDisableInterrupts)
/opt/microchip/mplabc32/v2.02/bin/../lib/gcc/pic32mx/4.5.1/../../../../pic32mx/lib/libmchp_peripheral_32MX795F512L.a(int_restore_interrupts_lib.o)
                              build/Debug/debug/_ext/1472/main.o (INTRestoreInterrupts)
/opt/microchip/mplabc32/v2.02/bin/../lib/gcc/pic32mx/4.5.1/../../../../pic32mx/lib/libmchp_peripheral_32MX795F512L.a(int_enable_mv_int_lib.o)
                              build/Debug/debug/_ext/1472/main.o (INTEnableSystemMultiVectoredInt)
/opt/microchip/mplabc32/v2.02/bin/../lib/gcc/pic32mx/4.5.1/../../../../pic32mx/lib/libmchp_peripheral_32MX795F512L.a(int_tbl_lib.o)
                              /opt/microchip/mplabc32/v2.02/bin/../lib/gcc/pic32mx/4.5.1/../../../../pic32mx/lib/libmchp_peripheral_32MX795F512L.a(eth_init_lib.o) (INTClearFlag)
/opt/microchip/mplabc32/v2.02/bin/../lib/gcc/pic32mx/4.5.1/../../../../pic32mx/lib/libmchp_peripheral_32MX795F512L.a(nvm_erase_page_lib.o)
                              build/Debug/debug/_ext/1472/Settings.o (NVMErasePage)
/opt/microchip/mplabc32/v2.02/bin/../lib/gcc/pic32mx/4.5.1/../../../../pic32mx/lib/libmchp_peripheral_32MX795F512L.a(nvm_operation_lib.o)
                              /opt/microchip/mplabc32/v2.02/bin/../lib/gcc/pic32mx/4.5.1/../../../../pic32mx/lib/libmchp_peripheral_32MX795F512L.a(nvm_erase_page_lib.o) (_NVMOperation)
/opt/microchip/mplabc32/v2.02/bin/../lib/gcc/pic32mx/4.5.1/../../../../pic32mx/lib/libmchp_peripheral_32MX795F512L.a(nvm_write_row_lib.o)
                              build/Debug/debug/_ext/1472/Settings.o (NVMWriteRow)
/opt/microchip/mplabc32/v2.02/bin/../lib/gcc/pic32mx/4.5.1/../../../../pic32mx/lib/libmchp_peripheral_32MX795F512L.a(port_set_pins_digital_in_lib.o)
                              build/Debug/debug/_ext/867694782/ETHPIC32ExtPhy.o (PORTSetPinsDigitalIn)
/opt/microchip/mplabc32/v2.02/bin/../lib/gcc/pic32mx/4.5.1/../../../../pic32mx/lib/libmchp_peripheral_32MX795F512L.a(port_set_pins_digital_out_lib.o)
                              build/Debug/debug/_ext/867694782/ETHPIC32ExtPhy.o (PORTSetPinsDigitalOut)
/opt/microchip/mplabc32/v2.02/bin/../lib/gcc/pic32mx/4.5.1/../../../../pic32mx/lib/libmchp_peripheral_32MX795F512L.a(_ports_tbl_libp.o)
                              /opt/microchip/mplabc32/v2.02/bin/../lib/gcc/pic32mx/4.5.1/../../../../pic32mx/lib/libmchp_peripheral_32MX795F512L.a(port_set_pins_digital_in_lib.o) (PortRegTbl)
/opt/microchip/mplabc32/v2.02/bin/../lib/gcc/pic32mx/4.5.1/../../../../pic32mx/lib/libmchp_peripheral_32MX795F512L.a(I2CAcknowledgeByte.o)
                              build/Debug/debug/_ext/1472/i2c_support.o (I2CAcknowledgeByte)
/opt/microchip/mplabc32/v2.02/bin/../lib/gcc/pic32mx/4.5.1/../../../../pic32mx/lib/libmchp_peripheral_32MX795F512L.a(I2CBusIsIdle.o)
                              build/Debug/debug/_ext/1472/i2c_support.o (I2CBusIsIdle)
/opt/microchip/mplabc32/v2.02/bin/../lib/gcc/pic32mx/4.5.1/../../../../pic32mx/lib/libmchp_peripheral_32MX795F512L.a(I2CByteWasAcknowledged.o)
                              build/Debug/debug/_ext/1472/i2c_support.o (I2CByteWasAcknowledged)
/opt/microchip/mplabc32/v2.02/bin/../lib/gcc/pic32mx/4.5.1/../../../../pic32mx/lib/libmchp_peripheral_32MX795F512L.a(I2CClearStatus.o)
                              build/Debug/debug/_ext/1472/i2c_support.o (I2CClearStatus)
/opt/microchip/mplabc32/v2.02/bin/../lib/gcc/pic32mx/4.5.1/../../../../pic32mx/lib/libmchp_peripheral_32MX795F512L.a(I2CConfigure.o)
                              build/Debug/debug/_ext/1472/i2c_support.o (I2CConfigure)
/opt/microchip/mplabc32/v2.02/bin/../lib/gcc/pic32mx/4.5.1/../../../../pic32mx/lib/libmchp_peripheral_32MX795F512L.a(I2CEnable.o)
                              build/Debug/debug/_ext/1472/i2c_support.o (I2CEnable)
/opt/microchip/mplabc32/v2.02/bin/../lib/gcc/pic32mx/4.5.1/../../../../pic32mx/lib/libmchp_peripheral_32MX795F512L.a(I2CGetByte.o)
                              build/Debug/debug/_ext/1472/i2c_support.o (I2CGetByte)
/opt/microchip/mplabc32/v2.02/bin/../lib/gcc/pic32mx/4.5.1/../../../../pic32mx/lib/libmchp_peripheral_32MX795F512L.a(I2CGetStatus.o)
                              build/Debug/debug/_ext/1472/i2c_support.o (I2CGetStatus)
/opt/microchip/mplabc32/v2.02/bin/../lib/gcc/pic32mx/4.5.1/../../../../pic32mx/lib/libmchp_peripheral_32MX795F512L.a(I2CReceivedDataIsAvailable.o)
                              build/Debug/debug/_ext/1472/i2c_support.o (I2CReceivedDataIsAvailable)
/opt/microchip/mplabc32/v2.02/bin/../lib/gcc/pic32mx/4.5.1/../../../../pic32mx/lib/libmchp_peripheral_32MX795F512L.a(I2CReceiverEnable.o)
                              build/Debug/debug/_ext/1472/i2c_support.o (I2CReceiverEnable)
/opt/microchip/mplabc32/v2.02/bin/../lib/gcc/pic32mx/4.5.1/../../../../pic32mx/lib/libmchp_peripheral_32MX795F512L.a(I2CRepeatStart.o)
                              build/Debug/debug/_ext/1472/i2c_support.o (I2CRepeatStart)
/opt/microchip/mplabc32/v2.02/bin/../lib/gcc/pic32mx/4.5.1/../../../../pic32mx/lib/libmchp_peripheral_32MX795F512L.a(I2CSendByte.o)
                              build/Debug/debug/_ext/1472/i2c_support.o (I2CSendByte)
/opt/microchip/mplabc32/v2.02/bin/../lib/gcc/pic32mx/4.5.1/../../../../pic32mx/lib/libmchp_peripheral_32MX795F512L.a(I2CSetFrequency.o)
                              build/Debug/debug/_ext/1472/i2c_support.o (I2CSetFrequency)
/opt/microchip/mplabc32/v2.02/bin/../lib/gcc/pic32mx/4.5.1/../../../../pic32mx/lib/libmchp_peripheral_32MX795F512L.a(I2CStart.o)
                              build/Debug/debug/_ext/1472/i2c_support.o (I2CStart)
/opt/microchip/mplabc32/v2.02/bin/../lib/gcc/pic32mx/4.5.1/../../../../pic32mx/lib/libmchp_peripheral_32MX795F512L.a(I2CStop.o)
                              build/Debug/debug/_ext/1472/i2c_support.o (I2CStop)
/opt/microchip/mplabc32/v2.02/bin/../lib/gcc/pic32mx/4.5.1/../../../../pic32mx/lib/libmchp_peripheral_32MX795F512L.a(I2CTransmissionHasCompleted.o)
                              build/Debug/debug/_ext/1472/i2c_support.o (I2CTransmissionHasCompleted)
/opt/microchip/mplabc32/v2.02/bin/../lib/gcc/pic32mx/4.5.1/../../../../pic32mx/lib/libmchp_peripheral_32MX795F512L.a(I2CTransmitterIsReady.o)
                              build/Debug/debug/_ext/1472/i2c_support.o (I2CTransmitterIsReady)
/opt/microchip/mplabc32/v2.02/bin/../lib/gcc/pic32mx/4.5.1/../../../../pic32mx/lib/libmchp_peripheral_32MX795F512L.a(int_enable_interrupts_lib.o)
                              /opt/microchip/mplabc32/v2.02/bin/../lib/gcc/pic32mx/4.5.1/../../../../pic32mx/lib/libmchp_peripheral_32MX795F512L.a(int_enable_mv_int_lib.o) (INTEnableInterrupts)
/opt/microchip/mplabc32/v2.02/bin/../lib/gcc/pic32mx/4.5.1/../../../../pic32mx/lib/libmchp_peripheral_32MX795F512L.a(I2CPrivate.o)
                              /opt/microchip/mplabc32/v2.02/bin/../lib/gcc/pic32mx/4.5.1/../../../../pic32mx/lib/libmchp_peripheral_32MX795F512L.a(I2CAcknowledgeByte.o) (i2cBase)
/opt/microchip/mplabc32/v2.02/bin/../lib/gcc/pic32mx/4.5.1/../../../../pic32mx/lib/libc.a(calloc.o)
                              /opt/microchip/mplabc32/v2.02/bin/../lib/gcc/pic32mx/4.5.1/../../../../pic32mx/lib/libmchp_peripheral_32MX795F512L.a(eth_descriptors_add_lib.o) (calloc)
/opt/microchip/mplabc32/v2.02/bin/../lib/gcc/pic32mx/4.5.1/libgcc.a(_floatundisf.o)
                              /opt/microchip/mplabc32/v2.02/bin/../lib/gcc/pic32mx/4.5.1/../../../../pic32mx/lib/libc.a(doprnt_cdfFnopsuxX.eo) (__floatundisf)
/opt/microchip/mplabc32/v2.02/bin/../lib/gcc/pic32mx/4.5.1/libgcc.a(_umoddi3.o)
                              /opt/microchip/mplabc32/v2.02/bin/../lib/gcc/pic32mx/4.5.1/../../../../pic32mx/lib/libc.a(doprnt_cdfFnopsuxX.eo) (__umoddi3)

Allocating common symbols
Common symbol       size              file

activeUDPSocket     0x1               build/Debug/debug/_ext/867694782/UDP.o
CurSettings         0x200             build/Debug/debug/_ext/1472/main.o
UDPTxCount          0x2               build/Debug/debug/_ext/867694782/UDP.o
_tftpError          0x2               build/Debug/debug/_ext/867694782/TFTPc.o
MyHodoCrate         0x4               build/Debug/debug/_ext/1472/main.o
_PhyAdd             0x4               build/Debug/debug/_ext/867694782/ETHPIC32ExtPhy.o
AN0String           0x8               build/Debug/debug/_ext/1472/main.o
UDPSocketInfo       0x8c              build/Debug/debug/_ext/867694782/UDP.o
remoteNode          0xa               build/Debug/debug/_ext/867694782/StackTsk.o
UDPRxCount          0x2               build/Debug/debug/_ext/867694782/UDP.o
_tftpSocket         0x1               build/Debug/debug/_ext/867694782/TFTPc.o
FirmSettings        0x200             build/Debug/debug/_ext/1472/main.o
AppConfig           0x33              build/Debug/debug/_ext/1472/main.o

Microchip PIC32 Memory-Usage Report

kseg0 Program-Memory Usage
section                    address  length [bytes]      (dec)  Description
-------                 ----------  -------------------------  -----------
.text                   0x9d000008         0xda58       55896  App's exec code 
.text._vfprintf_cdfFnop 0x9d00da60         0x13a0        5024   
.text                   0x9d00ee00         0x6b6c       27500  App's exec code 
.rodata                 0x9d01596c          0x7d4        2004  Read-only const 
.text                   0x9d016140         0x2324        8996  App's exec code 
.rodata                 0x9d018464          0x420        1056  Read-only const 
.text                   0x9d018884          0xe40        3648  App's exec code 
.dinit                  0x9d0196c4          0x344         836   
.text                   0x9d019a08          0x338         824  App's exec code 
.text.malloc            0x9d019d40          0x26c         620   
.text.EthRxBuffersAppen 0x9d019fac          0x264         612   
.text.scale             0x9d01a210          0x260         608   
.text.realloc           0x9d01a470          0x220         544   
.text.__floatdisf       0x9d01a690          0x214         532   
.text._EthAckPacket     0x9d01a8a4          0x1dc         476   
.text                   0x9d01aa80          0x354         852  App's exec code 
.text._sbrk_init        0x9d01add4          0x194         404   
.rodata                 0x9d01af68          0x188         392  Read-only const 
.text._EthRxAckBuffer   0x9d01b0f0          0x184         388   
.text.EthRxGetPacket    0x9d01b274          0x180         384   
.text                   0x9d01b3f4          0x448        1096  App's exec code 
.text.EthTxSendPacket   0x9d01b83c          0x150         336   
.text._EthAppendBusyLis 0x9d01b98c          0x144         324   
.text.fputc             0x9d01bad0          0x140         320   
.text.EthDescriptorsPoo 0x9d01bc10          0x134         308   
.text._flsbuf           0x9d01bd44          0x12c         300   
.text.EthDescriptorsAdd 0x9d01be70          0x12c         300   
.text                   0x9d01bf9c          0x120         288  App's exec code 
.text._NVMOperation     0x9d01c0bc          0x114         276   
.rodata                 0x9d01c1d0          0x104         260  Read-only const 
.text                   0x9d01c2d4           0xf0         240  App's exec code 
.text.strtok            0x9d01c3c4           0xf0         240   
.rodata                 0x9d01c4b8           0xe0         224  Read-only const 
.text                   0x9d01c598           0xd4         212  App's exec code 
.rodata                 0x9d01c66c           0xd0         208  Read-only const 
.text.general_exception 0x9d01c73c           0xd0         208   
.text._sbrk             0x9d01c80c           0xc4         196   
.text.EthTxSendBuffer   0x9d01c8d0           0xc4         196   
.text.EthInit           0x9d01c994           0xb4         180   
.text.EthMACOpen        0x9d01ca48           0xb4         180   
.text._EthTxSchedBuffer 0x9d01cafc           0xac         172   
.text                   0x9d01cba8           0xa8         168  App's exec code 
.text.atoi              0x9d01cc50           0xa4         164   
.text.EthMIIMInit       0x9d01ccf4           0xa0         160   
.text                   0x9d01cd94           0x98         152  App's exec code 
.rodata                 0x9d01ce2c           0x94         148  Read-only const 
.text.StarterKitIO      0x9d01cec0           0x8c         140   
.text._EthTxSchedList   0x9d01cf4c           0x8c         140   
.text.write             0x9d01cfd8           0x88         136   
.text.EthMIIMConfig     0x9d01d060           0x80         128   
.text.fputs             0x9d01d0e0           0x78         120   
.text.SoftReset         0x9d01d158           0x78         120   
.text.EthTxGetBufferSta 0x9d01d1d0           0x70         112   
.text.strcspn           0x9d01d240           0x6c         108   
.text.strspn            0x9d01d2ac           0x6c         108   
.text.EthRxFiltersPMSet 0x9d01d318           0x6c         108   
.rodata                 0x9d01d384           0x68         104  Read-only const 
.text._sprintf_cdfFnops 0x9d01d3ec           0x68         104   
.rodata                 0x9d01d454           0x68         104  Read-only const 
.text.EthMIIMReadReg    0x9d01d4bc           0x60          96   
.text.INTEnable         0x9d01d51c           0x58          88   
.rodata                 0x9d01d574           0x54          84  Read-only const 
.text.I2CBusIsIdle      0x9d01d5c8           0x54          84   
.text.rand              0x9d01d61c           0x50          80   
.text.sbrk              0x9d01d66c           0x50          80   
.text.calloc            0x9d01d6bc           0x50          80   
.text                   0x9d01d70c           0x4c          76  App's exec code 
.text.EthMIIMWriteRegWa 0x9d01d758           0x4c          76   
.text.I2CAcknowledgeByt 0x9d01d7a4           0x4c          76   
.text.EthMACSetAddress  0x9d01d7f0           0x48          72   
.text.I2CSetFrequency   0x9d01d838           0x48          72   
.text.puts              0x9d01d880           0x44          68   
.text.EthMACGetAddress  0x9d01d8c4           0x44          68   
.text.I2CGetStatus      0x9d01d908           0x44          68   
.rodata                 0x9d01d94c           0x40          64  Read-only const 
.text._printf_cdnopsuxX 0x9d01d98c           0x40          64   
.text.EthMIIMReadStart  0x9d01d9cc           0x40          64   
.text.PORTSetPinsDigita 0x9d01da0c           0x40          64   
.text.PORTSetPinsDigita 0x9d01da4c           0x40          64   
.text.EthRxGetBuffer    0x9d01da8c           0x3c          60   
.text.INTSetVectorPrior 0x9d01dac8           0x3c          60   
.text.INTSetVectorSubPr 0x9d01db04           0x3c          60   
.text._EthFindPacket    0x9d01db40           0x38          56   
.text.EthMIIMWriteStart 0x9d01db78           0x38          56   
.text.EthMIIMWriteReg   0x9d01dbb0           0x38          56   
.text.NVMWriteRow       0x9d01dbe8           0x38          56   
.text.I2CReceiverEnable 0x9d01dc20           0x38          56   
.text.EthMIIMScanStart  0x9d01dc58           0x34          52   
.text.INTEnableSystemMu 0x9d01dc8c           0x34          52   
.text.I2CSendByte       0x9d01dcc0           0x34          52   
.text.I2CStart          0x9d01dcf4           0x34          52   
.text.EthTxAcknowledgeB 0x9d01dd28           0x30          48   
.text.EthTxAckBuffer    0x9d01dd58           0x30          48   
.text.EthRxSetBufferSiz 0x9d01dd88           0x30          48   
.text.INTGetVectorPrior 0x9d01ddb8           0x30          48   
.text.INTGetVectorSubPr 0x9d01dde8           0x30          48   
.text.I2CRepeatStart    0x9d01de18           0x30          48   
.text._stub_sbd_memlayo 0x9d01de48           0x2c          44   
.text.INTClearFlag      0x9d01de74           0x2c          44   
.text.INTSetFlag        0x9d01dea0           0x2c          44   
.text.INTGetFlag        0x9d01decc           0x2c          44   
.text.INTGetEnable      0x9d01def8           0x2c          44   
.text.NVMErasePage      0x9d01df24           0x2c          44   
.text.strchr            0x9d01df50           0x28          40   
.text.EthMIIMReadResult 0x9d01df78           0x28          40   
.text.I2CEnable         0x9d01dfa0           0x28          40   
.rodata                 0x9d01dfc8           0x24          36  Read-only const 
.text.free              0x9d01dfec           0x24          36   
.text.EthMIIMScanStopWa 0x9d01e010           0x24          36   
.text.I2CByteWasAcknowl 0x9d01e034           0x24          36   
.text.I2CStop           0x9d01e058           0x24          36   
.text.I2CTransmissionHa 0x9d01e07c           0x24          36   
.text.I2CTransmitterIsR 0x9d01e0a0           0x24          36   
.text                   0x9d01e0c4           0xa0         160  App's exec code 
.text.EthMIIMScanResult 0x9d01e164           0x20          32   
.text.EthMIIMScanRead   0x9d01e184           0x20          32   
.text.I2CClearStatus    0x9d01e1a4           0x20          32   
.text.I2CConfigure      0x9d01e1c4           0x20          32   
.text.I2CGetByte        0x9d01e1e4           0x20          32   
.text.I2CReceivedDataIs 0x9d01e204           0x20          32   
.text.EthRxAcknowledgeB 0x9d01e224           0x1c          28   
.text.EthRxAckBuffer    0x9d01e240           0x1c          28   
.text.INTRestoreInterru 0x9d01e25c           0x1c          28   
.rodata                 0x9d01e278           0x18          24  Read-only const 
.text.srand             0x9d01e290           0x18          24   
.text                   0x9d01e2a8           0x18          24  App's exec code 
.text.EthRxFiltersHTSet 0x9d01e2c0           0x18          24   
.text.CheKseg0CacheOff  0x9d01e2d8           0x18          24   
.text.CheKseg0CacheOn   0x9d01e2f0           0x18          24   
.rodata                 0x9d01e308           0x14          20  Read-only const 
.text.EthMACSetMaxFrame 0x9d01e31c           0x14          20   
.text.EthRxFiltersPMClr 0x9d01e330           0x14          20   
.rodata                 0x9d01e344           0x14          20  Read-only const 
.text                   0x9d01e358           0x10          16  App's exec code 
.text.EthRxFiltersSet   0x9d01e368           0x10          16   
.text.EthRxFiltersClr   0x9d01e378           0x10          16   
.text.EthRxFiltersWrite 0x9d01e388           0x10          16   
.rodata                 0x9d01e398           0x20          32  Read-only const 
.text._bootstrap_except 0x9d01e3b8            0xc          12   
.rodata                 0x9d01e3c4            0x8           8  Read-only const 
.text.getpagesize       0x9d01e3cc            0x8           8   
.text._on_reset         0x9d01e3d4            0x8           8   
.text._on_bootstrap     0x9d01e3dc            0x8           8   
.rodata                 0x9d01e3e8            0x8           8  Read-only const 
.text.ReadCoreTimer     0x9d01e3f0            0x8           8   
.text.INTDisableInterru 0x9d01e3f8            0x8           8   
.text.INTEnableInterrup 0x9d01e400            0x8           8   
.rodata                 0x9d01e408            0x8           8  Read-only const 
.user_nvm_data          0x9d07f000         0x1000        4096   
      Total kseg0_program_mem used  :     0x1f400      128000  24.4% of 0x80000

kseg0 Boot-Memory Usage
section                    address  length [bytes]      (dec)  Description
-------                 ----------  -------------------------  -----------
         Total kseg0_boot_mem used  :           0           0  <1% of 0x970

Exception-Memory Usage 
section                    address  length [bytes]      (dec)  Description
-------                 ----------  -------------------------  -----------
.app_excpt              0x9fc01180           0x10          16  General-Exception 
.vector_4               0x9fc01280            0x8           8  Interrupt Vector 4 
          Total exception_mem used  :        0x18          24  0.6% of 0x1000

kseg1 Boot-Memory Usage
section                    address  length [bytes]      (dec)  Description
-------                 ----------  -------------------------  -----------
.reset                  0xbfc00000          0x1f4         500  Reset handler 
.bev_excpt              0xbfc00380           0x10          16  BEV-Exception 
         Total kseg1_boot_mem used  :       0x204         516  44.2% of 0x490
        --------------------------------------------------------------------------
         Total Program Memory used  :     0x1f61c      128540  24.2% of 0x81e00
        --------------------------------------------------------------------------


kseg1 Data-Memory Usage
section                    address  length [bytes]      (dec)  Description
-------                 ----------  -------------------------  -----------
.eh_frame               0xa0000200           0x3c          60   
.sdata                  0xa000023c           0x10          16  Small init data 
.sbss                   0xa000024c          0x118         280  Small uninit data 
.bss                    0xa0000364          0x4cc        1228  Uninitialized data 
.bss                    0xa0000844         0xbd14       48404  Uninitialized data 
.data                   0xa000c558           0xa0         160  Initialized data 
.bss                    0xa000c5f8          0x194         404  Uninitialized data 
         Total kseg1_data_mem used  :      0xc578       50552  38.6% of 0x20000
        --------------------------------------------------------------------------
            Total Data Memory used  :      0xc578       50552  38.6% of 0x20000
        --------------------------------------------------------------------------


Dynamic Data-Memory Reservation
section                    address  length [bytes]      (dec)  Description
-------                 ----------  -------------------------  -----------
heap                    0xa000c790         0x3e80       16000  Reserved for heap 
stack                   0xa0010628         0xf9c8       63944  Reserved for stack 

        --------------------------------------------------------------------------

Discarded input sections

 .reginfo       0x00000000       0x18 /opt/microchip/mplabc32/v2.02/bin/../lib/gcc/pic32mx/4.5.1/../../../../pic32mx/lib/crt0.o
 .pdr           0x00000000       0xa0 /opt/microchip/mplabc32/v2.02/bin/../lib/gcc/pic32mx/4.5.1/../../../../pic32mx/lib/crt0.o
 .reginfo       0x00000000       0x18 build/Debug/debug/_ext/100901378/WFScan.o
 .pdr           0x00000000       0x60 build/Debug/debug/_ext/100901378/WFScan.o
 .discard       0x00000000       0x74 build/Debug/debug/_ext/100901378/WFScan.o
 .reginfo       0x00000000       0x18 build/Debug/debug/_ext/100901378/WF_Spi.o
 .pdr           0x00000000       0x80 build/Debug/debug/_ext/100901378/WF_Spi.o
 .discard       0x00000000       0x74 build/Debug/debug/_ext/100901378/WF_Spi.o
 .reginfo       0x00000000       0x18 build/Debug/debug/_ext/100901378/WFEasyConfig.o
 .pdr           0x00000000       0x60 build/Debug/debug/_ext/100901378/WFEasyConfig.o
 .discard       0x00000000       0x74 build/Debug/debug/_ext/100901378/WFEasyConfig.o
 .reginfo       0x00000000       0x18 build/Debug/debug/_ext/100901378/WFConsole.o
 .pdr           0x00000000       0x60 build/Debug/debug/_ext/100901378/WFConsole.o
 .discard       0x00000000       0x74 build/Debug/debug/_ext/100901378/WFConsole.o
 .reginfo       0x00000000       0x18 build/Debug/debug/_ext/100901378/WF_Eint.o
 .pdr           0x00000000       0x80 build/Debug/debug/_ext/100901378/WF_Eint.o
 .discard       0x00000000       0x74 build/Debug/debug/_ext/100901378/WF_Eint.o
 .reginfo       0x00000000       0x18 build/Debug/debug/_ext/100901378/WFConnectionManager.o
 .pdr           0x00000000       0x60 build/Debug/debug/_ext/100901378/WFConnectionManager.o
 .discard       0x00000000       0x74 build/Debug/debug/_ext/100901378/WFConnectionManager.o
 .reginfo       0x00000000       0x18 build/Debug/debug/_ext/100901378/WFPowerSave.o
 .pdr           0x00000000       0x60 build/Debug/debug/_ext/100901378/WFPowerSave.o
 .discard       0x00000000       0x74 build/Debug/debug/_ext/100901378/WFPowerSave.o
 .reginfo       0x00000000       0x18 build/Debug/debug/_ext/100901378/WFParamMsg.o
 .pdr           0x00000000       0x60 build/Debug/debug/_ext/100901378/WFParamMsg.o
 .discard       0x00000000       0x74 build/Debug/debug/_ext/100901378/WFParamMsg.o
 .reginfo       0x00000000       0x18 build/Debug/debug/_ext/100901378/WFConnectionProfile.o
 .pdr           0x00000000       0x60 build/Debug/debug/_ext/100901378/WFConnectionProfile.o
 .discard       0x00000000       0x74 build/Debug/debug/_ext/100901378/WFConnectionProfile.o
 .reginfo       0x00000000       0x18 build/Debug/debug/_ext/100901378/WFDriverRaw.o
 .pdr           0x00000000       0x80 build/Debug/debug/_ext/100901378/WFDriverRaw.o
 .discard       0x00000000       0x74 build/Debug/debug/_ext/100901378/WFDriverRaw.o
 .reginfo       0x00000000       0x18 build/Debug/debug/_ext/100901378/WFConsoleIwpriv.o
 .pdr           0x00000000       0x60 build/Debug/debug/_ext/100901378/WFConsoleIwpriv.o
 .discard       0x00000000       0x74 build/Debug/debug/_ext/100901378/WFConsoleIwpriv.o
 .reginfo       0x00000000       0x18 build/Debug/debug/_ext/100901378/WFTxPower.o
 .pdr           0x00000000       0x60 build/Debug/debug/_ext/100901378/WFTxPower.o
 .discard       0x00000000       0x74 build/Debug/debug/_ext/100901378/WFTxPower.o
 .reginfo       0x00000000       0x18 build/Debug/debug/_ext/100901378/WFInit.o
 .pdr           0x00000000       0x60 build/Debug/debug/_ext/100901378/WFInit.o
 .discard       0x00000000       0x74 build/Debug/debug/_ext/100901378/WFInit.o
 .reginfo       0x00000000       0x18 build/Debug/debug/_ext/100901378/WFDriverCom.o
 .pdr           0x00000000       0x80 build/Debug/debug/_ext/100901378/WFDriverCom.o
 .discard       0x00000000       0x74 build/Debug/debug/_ext/100901378/WFDriverCom.o
 .reginfo       0x00000000       0x18 build/Debug/debug/_ext/100901378/WFConsoleMsgHandler.o
 .pdr           0x00000000       0x60 build/Debug/debug/_ext/100901378/WFConsoleMsgHandler.o
 .discard       0x00000000       0x74 build/Debug/debug/_ext/100901378/WFConsoleMsgHandler.o
 .reginfo       0x00000000       0x18 build/Debug/debug/_ext/100901378/WFEventHandler.o
 .pdr           0x00000000       0x60 build/Debug/debug/_ext/100901378/WFEventHandler.o
 .discard       0x00000000       0x74 build/Debug/debug/_ext/100901378/WFEventHandler.o
 .reginfo       0x00000000       0x18 build/Debug/debug/_ext/100901378/WFConsoleIwconfig.o
 .pdr           0x00000000       0x60 build/Debug/debug/_ext/100901378/WFConsoleIwconfig.o
 .discard       0x00000000       0x74 build/Debug/debug/_ext/100901378/WFConsoleIwconfig.o
 .reginfo       0x00000000       0x18 build/Debug/debug/_ext/100901378/WFConsoleIfconfig.o
 .pdr           0x00000000       0x60 build/Debug/debug/_ext/100901378/WFConsoleIfconfig.o
 .discard       0x00000000       0x74 build/Debug/debug/_ext/100901378/WFConsoleIfconfig.o
 .reginfo       0x00000000       0x18 build/Debug/debug/_ext/100901378/WFConnectionAlgorithm.o
 .pdr           0x00000000       0x60 build/Debug/debug/_ext/100901378/WFConnectionAlgorithm.o
 .discard       0x00000000       0x74 build/Debug/debug/_ext/100901378/WFConnectionAlgorithm.o
 .reginfo       0x00000000       0x18 build/Debug/debug/_ext/100901378/WFMac.o
 .pdr           0x00000000       0x80 build/Debug/debug/_ext/100901378/WFMac.o
 .discard       0x00000000       0x74 build/Debug/debug/_ext/100901378/WFMac.o
 .reginfo       0x00000000       0x18 build/Debug/debug/_ext/100901378/WFDataTxRx.o
 .pdr           0x00000000       0x60 build/Debug/debug/_ext/100901378/WFDataTxRx.o
 .discard       0x00000000       0x74 build/Debug/debug/_ext/100901378/WFDataTxRx.o
 .reginfo       0x00000000       0x18 build/Debug/debug/_ext/100901378/WFMgmtMsg.o
 .pdr           0x00000000       0x60 build/Debug/debug/_ext/100901378/WFMgmtMsg.o
 .discard       0x00000000       0x74 build/Debug/debug/_ext/100901378/WFMgmtMsg.o
 .reginfo       0x00000000       0x18 build/Debug/debug/_ext/100901378/WFConsoleMsgs.o
 .pdr           0x00000000       0x60 build/Debug/debug/_ext/100901378/WFConsoleMsgs.o
 .discard       0x00000000       0x74 build/Debug/debug/_ext/100901378/WFConsoleMsgs.o
 .reginfo       0x00000000       0x18 build/Debug/debug/_ext/867694782/TFTPc.o
 .pdr           0x00000000      0x1e0 build/Debug/debug/_ext/867694782/TFTPc.o
 .discard       0x00000000       0x74 build/Debug/debug/_ext/867694782/TFTPc.o
 .reginfo       0x00000000       0x18 build/Debug/debug/_ext/867694782/Announce.o
 .pdr           0x00000000       0xa0 build/Debug/debug/_ext/867694782/Announce.o
 .discard       0x00000000       0x74 build/Debug/debug/_ext/867694782/Announce.o
 .reginfo       0x00000000       0x18 build/Debug/debug/_ext/867694782/CAN2TCPBridge.o
 .pdr           0x00000000       0x60 build/Debug/debug/_ext/867694782/CAN2TCPBridge.o
 .discard       0x00000000       0x74 build/Debug/debug/_ext/867694782/CAN2TCPBridge.o
 .reginfo       0x00000000       0x18 build/Debug/debug/_ext/867694782/FTP.o
 .pdr           0x00000000       0x60 build/Debug/debug/_ext/867694782/FTP.o
 .discard       0x00000000       0x74 build/Debug/debug/_ext/867694782/FTP.o
 .reginfo       0x00000000       0x18 build/Debug/debug/_ext/867694782/ENC28J60.o
 .pdr           0x00000000       0x60 build/Debug/debug/_ext/867694782/ENC28J60.o
 .discard       0x00000000       0x74 build/Debug/debug/_ext/867694782/ENC28J60.o
 .reginfo       0x00000000       0x18 build/Debug/debug/_ext/867694782/SPIRAM.o
 .pdr           0x00000000       0x60 build/Debug/debug/_ext/867694782/SPIRAM.o
 .discard       0x00000000       0x74 build/Debug/debug/_ext/867694782/SPIRAM.o
 .reginfo       0x00000000       0x18 build/Debug/debug/_ext/867694782/SNMP.o
 .pdr           0x00000000       0x60 build/Debug/debug/_ext/867694782/SNMP.o
 .discard       0x00000000       0x74 build/Debug/debug/_ext/867694782/SNMP.o
 .reginfo       0x00000000       0x18 build/Debug/debug/_ext/867694782/Hashes.o
 .pdr           0x00000000       0x60 build/Debug/debug/_ext/867694782/Hashes.o
 .discard       0x00000000       0x74 build/Debug/debug/_ext/867694782/Hashes.o
 .reginfo       0x00000000       0x18 build/Debug/debug/_ext/867694782/LCDBlocking.o
 .pdr           0x00000000       0x60 build/Debug/debug/_ext/867694782/LCDBlocking.o
 .discard       0x00000000       0x74 build/Debug/debug/_ext/867694782/LCDBlocking.o
 .reginfo       0x00000000       0x18 build/Debug/debug/_ext/867694782/StackTsk.o
 .pdr           0x00000000       0xc0 build/Debug/debug/_ext/867694782/StackTsk.o
 .discard       0x00000000       0x74 build/Debug/debug/_ext/867694782/StackTsk.o
 .reginfo       0x00000000       0x18 build/Debug/debug/_ext/867694782/ARP.o
 .pdr           0x00000000      0x140 build/Debug/debug/_ext/867694782/ARP.o
 .discard       0x00000000       0x74 build/Debug/debug/_ext/867694782/ARP.o
 .reginfo       0x00000000       0x18 build/Debug/debug/_ext/867694782/HTTP.o
 .pdr           0x00000000       0x60 build/Debug/debug/_ext/867694782/HTTP.o
 .discard       0x00000000       0x74 build/Debug/debug/_ext/867694782/HTTP.o
 .reginfo       0x00000000       0x18 build/Debug/debug/_ext/867694782/SNTP.o
 .pdr           0x00000000       0x60 build/Debug/debug/_ext/867694782/SNTP.o
 .discard       0x00000000       0x74 build/Debug/debug/_ext/867694782/SNTP.o
 .reginfo       0x00000000       0x18 build/Debug/debug/_ext/867694782/RSA.o
 .pdr           0x00000000       0x60 build/Debug/debug/_ext/867694782/RSA.o
 .discard       0x00000000       0x74 build/Debug/debug/_ext/867694782/RSA.o
 .reginfo       0x00000000       0x18 build/Debug/debug/_ext/867694782/UART.o
 .pdr           0x00000000       0x60 build/Debug/debug/_ext/867694782/UART.o
 .discard       0x00000000       0x74 build/Debug/debug/_ext/867694782/UART.o
 .reginfo       0x00000000       0x18 build/Debug/debug/_ext/867694782/ZeroconfHelper.o
 .pdr           0x00000000       0x60 build/Debug/debug/_ext/867694782/ZeroconfHelper.o
 .discard       0x00000000       0x74 build/Debug/debug/_ext/867694782/ZeroconfHelper.o
 .reginfo       0x00000000       0x18 build/Debug/debug/_ext/867694782/HTTP2.o
 .pdr           0x00000000       0x60 build/Debug/debug/_ext/867694782/HTTP2.o
 .discard       0x00000000       0x74 build/Debug/debug/_ext/867694782/HTTP2.o
 .reginfo       0x00000000       0x18 build/Debug/debug/_ext/867694782/ZeroconfMulticastDNS.o
 .pdr           0x00000000       0x60 build/Debug/debug/_ext/867694782/ZeroconfMulticastDNS.o
 .discard       0x00000000       0x74 build/Debug/debug/_ext/867694782/ZeroconfMulticastDNS.o
 .reginfo       0x00000000       0x18 build/Debug/debug/_ext/867694782/NBNS.o
 .pdr           0x00000000       0x60 build/Debug/debug/_ext/867694782/NBNS.o
 .discard       0x00000000       0x74 build/Debug/debug/_ext/867694782/NBNS.o
 .reginfo       0x00000000       0x18 build/Debug/debug/_ext/867694782/ENCX24J600.o
 .pdr           0x00000000       0x60 build/Debug/debug/_ext/867694782/ENCX24J600.o
 .discard       0x00000000       0x74 build/Debug/debug/_ext/867694782/ENCX24J600.o
 .reginfo       0x00000000       0x18 build/Debug/debug/_ext/867694782/BerkeleyAPI.o
 .pdr           0x00000000      0x200 build/Debug/debug/_ext/867694782/BerkeleyAPI.o
 .discard       0x00000000       0x74 build/Debug/debug/_ext/867694782/BerkeleyAPI.o
 .reginfo       0x00000000       0x18 build/Debug/debug/_ext/867694782/TCPPerformanceTest.o
 .pdr           0x00000000       0x60 build/Debug/debug/_ext/867694782/TCPPerformanceTest.o
 .discard       0x00000000       0x74 build/Debug/debug/_ext/867694782/TCPPerformanceTest.o
 .reginfo       0x00000000       0x18 build/Debug/debug/_ext/867694782/UART2TCPBridge.o
 .pdr           0x00000000       0x60 build/Debug/debug/_ext/867694782/UART2TCPBridge.o
 .discard       0x00000000       0x74 build/Debug/debug/_ext/867694782/UART2TCPBridge.o
 .reginfo       0x00000000       0x18 build/Debug/debug/_ext/867694782/AutoIP.o
 .pdr           0x00000000       0x60 build/Debug/debug/_ext/867694782/AutoIP.o
 .discard       0x00000000       0x74 build/Debug/debug/_ext/867694782/AutoIP.o
 .reginfo       0x00000000       0x18 build/Debug/debug/_ext/867694782/DHCPs.o
 .pdr           0x00000000       0x60 build/Debug/debug/_ext/867694782/DHCPs.o
 .discard       0x00000000       0x74 build/Debug/debug/_ext/867694782/DHCPs.o
 .reginfo       0x00000000       0x18 build/Debug/debug/_ext/867694782/DHCP.o
 .pdr           0x00000000      0x1a0 build/Debug/debug/_ext/867694782/DHCP.o
 .discard       0x00000000       0x74 build/Debug/debug/_ext/867694782/DHCP.o
 .reginfo       0x00000000       0x18 build/Debug/debug/_ext/867694782/Reboot.o
 .pdr           0x00000000       0x60 build/Debug/debug/_ext/867694782/Reboot.o
 .discard       0x00000000       0x74 build/Debug/debug/_ext/867694782/Reboot.o
 .reginfo       0x00000000       0x18 build/Debug/debug/_ext/867694782/SPIEEPROM.o
 .pdr           0x00000000       0x60 build/Debug/debug/_ext/867694782/SPIEEPROM.o
 .discard       0x00000000       0x74 build/Debug/debug/_ext/867694782/SPIEEPROM.o
 .reginfo       0x00000000       0x18 build/Debug/debug/_ext/867694782/SSL.o
 .pdr           0x00000000       0x60 build/Debug/debug/_ext/867694782/SSL.o
 .discard       0x00000000       0x74 build/Debug/debug/_ext/867694782/SSL.o
 .reginfo       0x00000000       0x18 build/Debug/debug/_ext/867694782/Delay.o
 .pdr           0x00000000       0xa0 build/Debug/debug/_ext/867694782/Delay.o
 .discard       0x00000000       0x74 build/Debug/debug/_ext/867694782/Delay.o
 .reginfo       0x00000000       0x18 build/Debug/debug/_ext/867694782/SPIFlash.o
 .pdr           0x00000000       0x60 build/Debug/debug/_ext/867694782/SPIFlash.o
 .discard       0x00000000       0x74 build/Debug/debug/_ext/867694782/SPIFlash.o
 .reginfo       0x00000000       0x18 build/Debug/debug/_ext/867694782/DNSs.o
 .pdr           0x00000000       0x60 build/Debug/debug/_ext/867694782/DNSs.o
 .discard       0x00000000       0x74 build/Debug/debug/_ext/867694782/DNSs.o
 .reginfo       0x00000000       0x18 build/Debug/debug/_ext/867694782/BigInt.o
 .pdr           0x00000000       0x60 build/Debug/debug/_ext/867694782/BigInt.o
 .discard       0x00000000       0x74 build/Debug/debug/_ext/867694782/BigInt.o
 .reginfo       0x00000000       0x18 build/Debug/debug/_ext/867694782/UDP.o
 .pdr           0x00000000      0x280 build/Debug/debug/_ext/867694782/UDP.o
 .discard       0x00000000       0x74 build/Debug/debug/_ext/867694782/UDP.o
 .reginfo       0x00000000       0x18 build/Debug/debug/_ext/867694782/DNS.o
 .pdr           0x00000000       0x60 build/Debug/debug/_ext/867694782/DNS.o
 .discard       0x00000000       0x74 build/Debug/debug/_ext/867694782/DNS.o
 .reginfo       0x00000000       0x18 build/Debug/debug/_ext/867694782/ICMP.o
 .pdr           0x00000000      0x100 build/Debug/debug/_ext/867694782/ICMP.o
 .discard       0x00000000       0x74 build/Debug/debug/_ext/867694782/ICMP.o
 .reginfo       0x00000000       0x18 build/Debug/debug/_ext/867694782/ETHPIC32IntMac.o
 .pdr           0x00000000      0x360 build/Debug/debug/_ext/867694782/ETHPIC32IntMac.o
 .discard       0x00000000       0x74 build/Debug/debug/_ext/867694782/ETHPIC32IntMac.o
 .reginfo       0x00000000       0x18 build/Debug/debug/_ext/867694782/ETH97J60.o
 .pdr           0x00000000       0x60 build/Debug/debug/_ext/867694782/ETH97J60.o
 .discard       0x00000000       0x74 build/Debug/debug/_ext/867694782/ETH97J60.o
 .reginfo       0x00000000       0x18 build/Debug/debug/_ext/867694782/Helpers.o
 .pdr           0x00000000      0x220 build/Debug/debug/_ext/867694782/Helpers.o
 .discard       0x00000000       0x74 build/Debug/debug/_ext/867694782/Helpers.o
 .reginfo       0x00000000       0x18 build/Debug/debug/_ext/867694782/ZeroconfLinkLocal.o
 .pdr           0x00000000       0x60 build/Debug/debug/_ext/867694782/ZeroconfLinkLocal.o
 .discard       0x00000000       0x74 build/Debug/debug/_ext/867694782/ZeroconfLinkLocal.o
 .reginfo       0x00000000       0x18 build/Debug/debug/_ext/867694782/IP.o
 .pdr           0x00000000       0xe0 build/Debug/debug/_ext/867694782/IP.o
 .discard       0x00000000       0x74 build/Debug/debug/_ext/867694782/IP.o
 .reginfo       0x00000000       0x18 build/Debug/debug/_ext/867694782/TCP.o
 .pdr           0x00000000      0x480 build/Debug/debug/_ext/867694782/TCP.o
 .discard       0x00000000       0x74 build/Debug/debug/_ext/867694782/TCP.o
 .reginfo       0x00000000       0x18 build/Debug/debug/_ext/867694782/ETHPIC32ExtPhyDP83848.o
 .pdr           0x00000000       0xe0 build/Debug/debug/_ext/867694782/ETHPIC32ExtPhyDP83848.o
 .discard       0x00000000       0x74 build/Debug/debug/_ext/867694782/ETHPIC32ExtPhyDP83848.o
 .reginfo       0x00000000       0x18 build/Debug/debug/_ext/867694782/SMTP.o
 .pdr           0x00000000       0x60 build/Debug/debug/_ext/867694782/SMTP.o
 .discard       0x00000000       0x74 build/Debug/debug/_ext/867694782/SMTP.o
 .reginfo       0x00000000       0x18 build/Debug/debug/_ext/867694782/Tick.o
 .pdr           0x00000000      0x160 build/Debug/debug/_ext/867694782/Tick.o
 .discard       0x00000000       0x74 build/Debug/debug/_ext/867694782/Tick.o
 .reginfo       0x00000000       0x18 build/Debug/debug/_ext/867694782/Telnet.o
 .pdr           0x00000000       0x60 build/Debug/debug/_ext/867694782/Telnet.o
 .discard       0x00000000       0x74 build/Debug/debug/_ext/867694782/Telnet.o
 .reginfo       0x00000000       0x18 build/Debug/debug/_ext/867694782/ETHPIC32ExtPhy.o
 .pdr           0x00000000      0x1c0 build/Debug/debug/_ext/867694782/ETHPIC32ExtPhy.o
 .discard       0x00000000       0x74 build/Debug/debug/_ext/867694782/ETHPIC32ExtPhy.o
 .reginfo       0x00000000       0x18 build/Debug/debug/_ext/867694782/Random.o
 .pdr           0x00000000       0x60 build/Debug/debug/_ext/867694782/Random.o
 .discard       0x00000000       0x74 build/Debug/debug/_ext/867694782/Random.o
 .reginfo       0x00000000       0x18 build/Debug/debug/_ext/867694782/MPFS.o
 .pdr           0x00000000       0x60 build/Debug/debug/_ext/867694782/MPFS.o
 .discard       0x00000000       0x74 build/Debug/debug/_ext/867694782/MPFS.o
 .reginfo       0x00000000       0x18 build/Debug/debug/_ext/867694782/MPFS2.o
 .pdr           0x00000000       0x60 build/Debug/debug/_ext/867694782/MPFS2.o
 .discard       0x00000000       0x74 build/Debug/debug/_ext/867694782/MPFS2.o
 .reginfo       0x00000000       0x18 build/Debug/debug/_ext/867694782/DynDNS.o
 .pdr           0x00000000       0x60 build/Debug/debug/_ext/867694782/DynDNS.o
 .discard       0x00000000       0x74 build/Debug/debug/_ext/867694782/DynDNS.o
 .reginfo       0x00000000       0x18 build/Debug/debug/_ext/867694782/UDPPerformanceTest.o
 .pdr           0x00000000       0x60 build/Debug/debug/_ext/867694782/UDPPerformanceTest.o
 .discard       0x00000000       0x74 build/Debug/debug/_ext/867694782/UDPPerformanceTest.o
 .reginfo       0x00000000       0x18 build/Debug/debug/_ext/867694782/ARCFOUR.o
 .pdr           0x00000000       0x60 build/Debug/debug/_ext/867694782/ARCFOUR.o
 .discard       0x00000000       0x74 build/Debug/debug/_ext/867694782/ARCFOUR.o
 .reginfo       0x00000000       0x18 build/Debug/debug/_ext/1472/i2c_support.o
 .pdr           0x00000000      0x160 build/Debug/debug/_ext/1472/i2c_support.o
 .discard       0x00000000       0x74 build/Debug/debug/_ext/1472/i2c_support.o
 .reginfo       0x00000000       0x18 build/Debug/debug/_ext/1472/main.o
 .pdr           0x00000000      0x100 build/Debug/debug/_ext/1472/main.o
 .discard       0x00000000       0x74 build/Debug/debug/_ext/1472/main.o
 .reginfo       0x00000000       0x18 build/Debug/debug/_ext/1472/MyTFTP.o
 .pdr           0x00000000       0x80 build/Debug/debug/_ext/1472/MyTFTP.o
 .discard       0x00000000       0x74 build/Debug/debug/_ext/1472/MyTFTP.o
 .reginfo       0x00000000       0x18 build/Debug/debug/_ext/1472/Settings.o
 .pdr           0x00000000      0x100 build/Debug/debug/_ext/1472/Settings.o
 .discard       0x00000000       0x74 build/Debug/debug/_ext/1472/Settings.o
 .reginfo       0x00000000       0x18 build/Debug/debug/_ext/1472/HodoCrate.o
 .pdr           0x00000000      0x260 build/Debug/debug/_ext/1472/HodoCrate.o
 .discard       0x00000000       0x74 build/Debug/debug/_ext/1472/HodoCrate.o
 .reginfo       0x00000000       0x18 build/Debug/debug/_ext/1472/BerkeleyTCPServerDemo.o
 .pdr           0x00000000       0x80 build/Debug/debug/_ext/1472/BerkeleyTCPServerDemo.o
 .discard       0x00000000       0x74 build/Debug/debug/_ext/1472/BerkeleyTCPServerDemo.o
 .reginfo       0x00000000       0x18 build/Debug/debug/_ext/1472/PingDemo.o
 .pdr           0x00000000       0x80 build/Debug/debug/_ext/1472/PingDemo.o
 .discard       0x00000000       0x74 build/Debug/debug/_ext/1472/PingDemo.o
 .reginfo       0x00000000       0x18 /opt/microchip/mplabc32/v2.02/bin/../lib/gcc/pic32mx/4.5.1/libgcc.a(_udivdi3.o)
 .pdr           0x00000000       0x20 /opt/microchip/mplabc32/v2.02/bin/../lib/gcc/pic32mx/4.5.1/libgcc.a(_udivdi3.o)
 .reginfo       0x00000000       0x18 /opt/microchip/mplabc32/v2.02/bin/../lib/gcc/pic32mx/4.5.1/libgcc.a(floatunsisf.o)
 .pdr           0x00000000       0x20 /opt/microchip/mplabc32/v2.02/bin/../lib/gcc/pic32mx/4.5.1/libgcc.a(floatunsisf.o)
 .reginfo       0x00000000       0x18 /opt/microchip/mplabc32/v2.02/bin/../lib/gcc/pic32mx/4.5.1/../../../../pic32mx/lib/libdebug.a(db_utils.o)
 .pdr           0x00000000       0xc0 /opt/microchip/mplabc32/v2.02/bin/../lib/gcc/pic32mx/4.5.1/../../../../pic32mx/lib/libdebug.a(db_utils.o)
 .reginfo       0x00000000       0x18 /opt/microchip/mplabc32/v2.02/bin/../lib/gcc/pic32mx/4.5.1/../../../../pic32mx/lib/libc.a(memcmp.o)
 .pdr           0x00000000       0x20 /opt/microchip/mplabc32/v2.02/bin/../lib/gcc/pic32mx/4.5.1/../../../../pic32mx/lib/libc.a(memcmp.o)
 .reginfo       0x00000000       0x18 /opt/microchip/mplabc32/v2.02/bin/../lib/gcc/pic32mx/4.5.1/../../../../pic32mx/lib/libc.a(memcpy.o)
 .pdr           0x00000000       0x20 /opt/microchip/mplabc32/v2.02/bin/../lib/gcc/pic32mx/4.5.1/../../../../pic32mx/lib/libc.a(memcpy.o)
 .reginfo       0x00000000       0x18 /opt/microchip/mplabc32/v2.02/bin/../lib/gcc/pic32mx/4.5.1/../../../../pic32mx/lib/libc.a(memset.o)
 .pdr           0x00000000       0x20 /opt/microchip/mplabc32/v2.02/bin/../lib/gcc/pic32mx/4.5.1/../../../../pic32mx/lib/libc.a(memset.o)
 .reginfo       0x00000000       0x18 /opt/microchip/mplabc32/v2.02/bin/../lib/gcc/pic32mx/4.5.1/../../../../pic32mx/lib/libc.a(strcmp.o)
 .pdr           0x00000000       0x20 /opt/microchip/mplabc32/v2.02/bin/../lib/gcc/pic32mx/4.5.1/../../../../pic32mx/lib/libc.a(strcmp.o)
 .reginfo       0x00000000       0x18 /opt/microchip/mplabc32/v2.02/bin/../lib/gcc/pic32mx/4.5.1/../../../../pic32mx/lib/libc.a(strcpy.o)
 .pdr           0x00000000       0x20 /opt/microchip/mplabc32/v2.02/bin/../lib/gcc/pic32mx/4.5.1/../../../../pic32mx/lib/libc.a(strcpy.o)
 .reginfo       0x00000000       0x18 /opt/microchip/mplabc32/v2.02/bin/../lib/gcc/pic32mx/4.5.1/../../../../pic32mx/lib/libc.a(strlen.o)
 .pdr           0x00000000       0x20 /opt/microchip/mplabc32/v2.02/bin/../lib/gcc/pic32mx/4.5.1/../../../../pic32mx/lib/libc.a(strlen.o)
 .reginfo       0x00000000       0x18 /opt/microchip/mplabc32/v2.02/bin/../lib/gcc/pic32mx/4.5.1/../../../../pic32mx/lib/libc.a(general-exception.o)
 .pdr           0x00000000       0x20 /opt/microchip/mplabc32/v2.02/bin/../lib/gcc/pic32mx/4.5.1/../../../../pic32mx/lib/libc.a(general-exception.o)
 .reginfo       0x00000000       0x18 /opt/microchip/mplabc32/v2.02/bin/../lib/gcc/pic32mx/4.5.1/../../../../pic32mx/lib/libc.a(atoi.o)
 .pdr           0x00000000       0x20 /opt/microchip/mplabc32/v2.02/bin/../lib/gcc/pic32mx/4.5.1/../../../../pic32mx/lib/libc.a(atoi.o)
 .reginfo       0x00000000       0x18 /opt/microchip/mplabc32/v2.02/bin/../lib/gcc/pic32mx/4.5.1/../../../../pic32mx/lib/libc.a(c32_uart.o)
 .pdr           0x00000000        0x0 /opt/microchip/mplabc32/v2.02/bin/../lib/gcc/pic32mx/4.5.1/../../../../pic32mx/lib/libc.a(c32_uart.o)
 .reginfo       0x00000000       0x18 /opt/microchip/mplabc32/v2.02/bin/../lib/gcc/pic32mx/4.5.1/../../../../pic32mx/lib/libc.a(ctype.o)
 .pdr           0x00000000        0x0 /opt/microchip/mplabc32/v2.02/bin/../lib/gcc/pic32mx/4.5.1/../../../../pic32mx/lib/libc.a(ctype.o)
 .reginfo       0x00000000       0x18 /opt/microchip/mplabc32/v2.02/bin/../lib/gcc/pic32mx/4.5.1/../../../../pic32mx/lib/libc.a(malloc.o)
 .pdr           0x00000000       0x60 /opt/microchip/mplabc32/v2.02/bin/../lib/gcc/pic32mx/4.5.1/../../../../pic32mx/lib/libc.a(malloc.o)
 .reginfo       0x00000000       0x18 /opt/microchip/mplabc32/v2.02/bin/../lib/gcc/pic32mx/4.5.1/../../../../pic32mx/lib/libc.a(puts.o)
 .pdr           0x00000000       0x40 /opt/microchip/mplabc32/v2.02/bin/../lib/gcc/pic32mx/4.5.1/../../../../pic32mx/lib/libc.a(puts.o)
 .reginfo       0x00000000       0x18 /opt/microchip/mplabc32/v2.02/bin/../lib/gcc/pic32mx/4.5.1/../../../../pic32mx/lib/libc.a(rand.o)
 .pdr           0x00000000       0x40 /opt/microchip/mplabc32/v2.02/bin/../lib/gcc/pic32mx/4.5.1/../../../../pic32mx/lib/libc.a(rand.o)
 .reginfo       0x00000000       0x18 /opt/microchip/mplabc32/v2.02/bin/../lib/gcc/pic32mx/4.5.1/../../../../pic32mx/lib/libc.a(strtok.o)
 .pdr           0x00000000       0x20 /opt/microchip/mplabc32/v2.02/bin/../lib/gcc/pic32mx/4.5.1/../../../../pic32mx/lib/libc.a(strtok.o)
 .reginfo       0x00000000       0x18 /opt/microchip/mplabc32/v2.02/bin/../lib/gcc/pic32mx/4.5.1/../../../../pic32mx/lib/libc.a(printf_cdnopsuxX.eo)
 .pdr           0x00000000       0x20 /opt/microchip/mplabc32/v2.02/bin/../lib/gcc/pic32mx/4.5.1/../../../../pic32mx/lib/libc.a(printf_cdnopsuxX.eo)
 .reginfo       0x00000000       0x18 /opt/microchip/mplabc32/v2.02/bin/../lib/gcc/pic32mx/4.5.1/../../../../pic32mx/lib/libc.a(sprintf_cdfFnopsuxX.eo)
 .pdr           0x00000000       0x20 /opt/microchip/mplabc32/v2.02/bin/../lib/gcc/pic32mx/4.5.1/../../../../pic32mx/lib/libc.a(sprintf_cdfFnopsuxX.eo)
 .reginfo       0x00000000       0x18 /opt/microchip/mplabc32/v2.02/bin/../lib/gcc/pic32mx/4.5.1/../../../../pic32mx/lib/libc.a(sbrk.o)
 .pdr           0x00000000       0xa0 /opt/microchip/mplabc32/v2.02/bin/../lib/gcc/pic32mx/4.5.1/../../../../pic32mx/lib/libc.a(sbrk.o)
 .reginfo       0x00000000       0x18 /opt/microchip/mplabc32/v2.02/bin/../lib/gcc/pic32mx/4.5.1/../../../../pic32mx/lib/libc.a(default-bootstrap-exception-handler.o)
 .pdr           0x00000000       0x20 /opt/microchip/mplabc32/v2.02/bin/../lib/gcc/pic32mx/4.5.1/../../../../pic32mx/lib/libc.a(default-bootstrap-exception-handler.o)
 .reginfo       0x00000000       0x18 /opt/microchip/mplabc32/v2.02/bin/../lib/gcc/pic32mx/4.5.1/../../../../pic32mx/lib/libc.a(default-on-reset.o)
 .pdr           0x00000000       0x20 /opt/microchip/mplabc32/v2.02/bin/../lib/gcc/pic32mx/4.5.1/../../../../pic32mx/lib/libc.a(default-on-reset.o)
 .reginfo       0x00000000       0x18 /opt/microchip/mplabc32/v2.02/bin/../lib/gcc/pic32mx/4.5.1/../../../../pic32mx/lib/libc.a(default-on-bootstrap.o)
 .pdr           0x00000000       0x20 /opt/microchip/mplabc32/v2.02/bin/../lib/gcc/pic32mx/4.5.1/../../../../pic32mx/lib/libc.a(default-on-bootstrap.o)
 .reginfo       0x00000000       0x18 /opt/microchip/mplabc32/v2.02/bin/../lib/gcc/pic32mx/4.5.1/../../../../pic32mx/lib/libc.a(default-nmi-handler.o)
 .pdr           0x00000000       0x20 /opt/microchip/mplabc32/v2.02/bin/../lib/gcc/pic32mx/4.5.1/../../../../pic32mx/lib/libc.a(default-nmi-handler.o)
 .reginfo       0x00000000       0x18 /opt/microchip/mplabc32/v2.02/bin/../lib/gcc/pic32mx/4.5.1/../../../../pic32mx/lib/libc.a(_iob.o)
 .pdr           0x00000000        0x0 /opt/microchip/mplabc32/v2.02/bin/../lib/gcc/pic32mx/4.5.1/../../../../pic32mx/lib/libc.a(_iob.o)
 .reginfo       0x00000000       0x18 /opt/microchip/mplabc32/v2.02/bin/../lib/gcc/pic32mx/4.5.1/../../../../pic32mx/lib/libc.a(_fputc_simple.o)
 .pdr           0x00000000       0x20 /opt/microchip/mplabc32/v2.02/bin/../lib/gcc/pic32mx/4.5.1/../../../../pic32mx/lib/libc.a(_fputc_simple.o)
 .reginfo       0x00000000       0x18 /opt/microchip/mplabc32/v2.02/bin/../lib/gcc/pic32mx/4.5.1/../../../../pic32mx/lib/libc.a(errno.o)
 .pdr           0x00000000        0x0 /opt/microchip/mplabc32/v2.02/bin/../lib/gcc/pic32mx/4.5.1/../../../../pic32mx/lib/libc.a(errno.o)
 .reginfo       0x00000000       0x18 /opt/microchip/mplabc32/v2.02/bin/../lib/gcc/pic32mx/4.5.1/../../../../pic32mx/lib/libc.a(strcspn.o)
 .pdr           0x00000000       0x20 /opt/microchip/mplabc32/v2.02/bin/../lib/gcc/pic32mx/4.5.1/../../../../pic32mx/lib/libc.a(strcspn.o)
 .reginfo       0x00000000       0x18 /opt/microchip/mplabc32/v2.02/bin/../lib/gcc/pic32mx/4.5.1/../../../../pic32mx/lib/libc.a(strspn.o)
 .pdr           0x00000000       0x20 /opt/microchip/mplabc32/v2.02/bin/../lib/gcc/pic32mx/4.5.1/../../../../pic32mx/lib/libc.a(strspn.o)
 .reginfo       0x00000000       0x18 /opt/microchip/mplabc32/v2.02/bin/../lib/gcc/pic32mx/4.5.1/../../../../pic32mx/lib/libc.a(doprnt_cdfFnopsuxX.eo)
 .pdr           0x00000000       0x40 /opt/microchip/mplabc32/v2.02/bin/../lib/gcc/pic32mx/4.5.1/../../../../pic32mx/lib/libc.a(doprnt_cdfFnopsuxX.eo)
 .reginfo       0x00000000       0x18 /opt/microchip/mplabc32/v2.02/bin/../lib/gcc/pic32mx/4.5.1/../../../../pic32mx/lib/libc.a(write.o)
 .pdr           0x00000000       0x20 /opt/microchip/mplabc32/v2.02/bin/../lib/gcc/pic32mx/4.5.1/../../../../pic32mx/lib/libc.a(write.o)
 .reginfo       0x00000000       0x18 /opt/microchip/mplabc32/v2.02/bin/../lib/gcc/pic32mx/4.5.1/../../../../pic32mx/lib/libc.a(_flsbuf_simple.o)
 .pdr           0x00000000       0x20 /opt/microchip/mplabc32/v2.02/bin/../lib/gcc/pic32mx/4.5.1/../../../../pic32mx/lib/libc.a(_flsbuf_simple.o)
 .reginfo       0x00000000       0x18 /opt/microchip/mplabc32/v2.02/bin/../lib/gcc/pic32mx/4.5.1/../../../../pic32mx/lib/libc.a(powers.o)
 .pdr           0x00000000        0x0 /opt/microchip/mplabc32/v2.02/bin/../lib/gcc/pic32mx/4.5.1/../../../../pic32mx/lib/libc.a(powers.o)
 .reginfo       0x00000000       0x18 /opt/microchip/mplabc32/v2.02/bin/../lib/gcc/pic32mx/4.5.1/../../../../pic32mx/lib/libc.a(strchr.o)
 .pdr           0x00000000       0x20 /opt/microchip/mplabc32/v2.02/bin/../lib/gcc/pic32mx/4.5.1/../../../../pic32mx/lib/libc.a(strchr.o)
 .reginfo       0x00000000       0x18 /opt/microchip/mplabc32/v2.02/bin/../lib/gcc/pic32mx/4.5.1/../../../../pic32mx/lib/libm.a(fpmod32.o)
 .pdr           0x00000000        0x0 /opt/microchip/mplabc32/v2.02/bin/../lib/gcc/pic32mx/4.5.1/../../../../pic32mx/lib/libm.a(fpmod32.o)
 .reginfo       0x00000000       0x18 /opt/microchip/mplabc32/v2.02/bin/../lib/gcc/pic32mx/4.5.1/../../../../pic32mx/lib/libm.a(fp32.o)
 .pdr           0x00000000        0x0 /opt/microchip/mplabc32/v2.02/bin/../lib/gcc/pic32mx/4.5.1/../../../../pic32mx/lib/libm.a(fp32.o)
 .reginfo       0x00000000       0x18 /opt/microchip/mplabc32/v2.02/bin/../lib/gcc/pic32mx/4.5.1/../../../../pic32mx/lib/libe.a(_floatdisf.o)
 .pdr           0x00000000       0x20 /opt/microchip/mplabc32/v2.02/bin/../lib/gcc/pic32mx/4.5.1/../../../../pic32mx/lib/libe.a(_floatdisf.o)
 .reginfo       0x00000000       0x18 /opt/microchip/mplabc32/v2.02/bin/../lib/gcc/pic32mx/4.5.1/../../../../pic32mx/lib/libmchp_peripheral.a(read_core_timer_lib.o)
 .pdr           0x00000000       0x20 /opt/microchip/mplabc32/v2.02/bin/../lib/gcc/pic32mx/4.5.1/../../../../pic32mx/lib/libmchp_peripheral.a(read_core_timer_lib.o)
 .reginfo       0x00000000       0x18 /opt/microchip/mplabc32/v2.02/bin/../lib/gcc/pic32mx/4.5.1/../../../../pic32mx/lib/libmchp_peripheral_32MX795F512L.a(eth_ack_packet_lib.o)
 .pdr           0x00000000       0xc0 /opt/microchip/mplabc32/v2.02/bin/../lib/gcc/pic32mx/4.5.1/../../../../pic32mx/lib/libmchp_peripheral_32MX795F512L.a(eth_ack_packet_lib.o)
 .reginfo       0x00000000       0x18 /opt/microchip/mplabc32/v2.02/bin/../lib/gcc/pic32mx/4.5.1/../../../../pic32mx/lib/libmchp_peripheral_32MX795F512L.a(eth_descriptors_add_lib.o)
 .pdr           0x00000000       0x40 /opt/microchip/mplabc32/v2.02/bin/../lib/gcc/pic32mx/4.5.1/../../../../pic32mx/lib/libmchp_peripheral_32MX795F512L.a(eth_descriptors_add_lib.o)
 .reginfo       0x00000000       0x18 /opt/microchip/mplabc32/v2.02/bin/../lib/gcc/pic32mx/4.5.1/../../../../pic32mx/lib/libmchp_peripheral_32MX795F512L.a(eth_init_lib.o)
 .pdr           0x00000000       0x20 /opt/microchip/mplabc32/v2.02/bin/../lib/gcc/pic32mx/4.5.1/../../../../pic32mx/lib/libmchp_peripheral_32MX795F512L.a(eth_init_lib.o)
 .reginfo       0x00000000       0x18 /opt/microchip/mplabc32/v2.02/bin/../lib/gcc/pic32mx/4.5.1/../../../../pic32mx/lib/libmchp_peripheral_32MX795F512L.a(eth_mac_open_lib.o)
 .pdr           0x00000000       0x20 /opt/microchip/mplabc32/v2.02/bin/../lib/gcc/pic32mx/4.5.1/../../../../pic32mx/lib/libmchp_peripheral_32MX795F512L.a(eth_mac_open_lib.o)
 .reginfo       0x00000000       0x18 /opt/microchip/mplabc32/v2.02/bin/../lib/gcc/pic32mx/4.5.1/../../../../pic32mx/lib/libmchp_peripheral_32MX795F512L.a(eth_mac_set_address_max_lib.o)
 .pdr           0x00000000       0x60 /opt/microchip/mplabc32/v2.02/bin/../lib/gcc/pic32mx/4.5.1/../../../../pic32mx/lib/libmchp_peripheral_32MX795F512L.a(eth_mac_set_address_max_lib.o)
 .reginfo       0x00000000       0x18 /opt/microchip/mplabc32/v2.02/bin/../lib/gcc/pic32mx/4.5.1/../../../../pic32mx/lib/libmchp_peripheral_32MX795F512L.a(eth_rx_buffers_append_lib.o)
 .pdr           0x00000000       0x20 /opt/microchip/mplabc32/v2.02/bin/../lib/gcc/pic32mx/4.5.1/../../../../pic32mx/lib/libmchp_peripheral_32MX795F512L.a(eth_rx_buffers_append_lib.o)
 .reginfo       0x00000000       0x18 /opt/microchip/mplabc32/v2.02/bin/../lib/gcc/pic32mx/4.5.1/../../../../pic32mx/lib/libmchp_peripheral_32MX795F512L.a(eth_rx_filters_lib.o)
 .pdr           0x00000000       0xc0 /opt/microchip/mplabc32/v2.02/bin/../lib/gcc/pic32mx/4.5.1/../../../../pic32mx/lib/libmchp_peripheral_32MX795F512L.a(eth_rx_filters_lib.o)
 .reginfo       0x00000000       0x18 /opt/microchip/mplabc32/v2.02/bin/../lib/gcc/pic32mx/4.5.1/../../../../pic32mx/lib/libmchp_peripheral_32MX795F512L.a(eth_rx_get_packet_lib.o)
 .pdr           0x00000000       0x40 /opt/microchip/mplabc32/v2.02/bin/../lib/gcc/pic32mx/4.5.1/../../../../pic32mx/lib/libmchp_peripheral_32MX795F512L.a(eth_rx_get_packet_lib.o)
 .reginfo       0x00000000       0x18 /opt/microchip/mplabc32/v2.02/bin/../lib/gcc/pic32mx/4.5.1/../../../../pic32mx/lib/libmchp_peripheral_32MX795F512L.a(eth_rx_set_buffer_size_lib.o)
 .pdr           0x00000000       0x20 /opt/microchip/mplabc32/v2.02/bin/../lib/gcc/pic32mx/4.5.1/../../../../pic32mx/lib/libmchp_peripheral_32MX795F512L.a(eth_rx_set_buffer_size_lib.o)
 .reginfo       0x00000000       0x18 /opt/microchip/mplabc32/v2.02/bin/../lib/gcc/pic32mx/4.5.1/../../../../pic32mx/lib/libmchp_peripheral_32MX795F512L.a(eth_tx_packet_lib.o)
 .pdr           0x00000000       0xc0 /opt/microchip/mplabc32/v2.02/bin/../lib/gcc/pic32mx/4.5.1/../../../../pic32mx/lib/libmchp_peripheral_32MX795F512L.a(eth_tx_packet_lib.o)
 .reginfo       0x00000000       0x18 /opt/microchip/mplabc32/v2.02/bin/../lib/gcc/pic32mx/4.5.1/../../../../pic32mx/lib/libmchp_peripheral_32MX795F512L.a(_eth_append_busy_list_lib.o)
 .pdr           0x00000000       0x20 /opt/microchip/mplabc32/v2.02/bin/../lib/gcc/pic32mx/4.5.1/../../../../pic32mx/lib/libmchp_peripheral_32MX795F512L.a(_eth_append_busy_list_lib.o)
 .reginfo       0x00000000       0x18 /opt/microchip/mplabc32/v2.02/bin/../lib/gcc/pic32mx/4.5.1/../../../../pic32mx/lib/libmchp_peripheral_32MX795F512L.a(eth_miim_access.o)
 .pdr           0x00000000       0xc0 /opt/microchip/mplabc32/v2.02/bin/../lib/gcc/pic32mx/4.5.1/../../../../pic32mx/lib/libmchp_peripheral_32MX795F512L.a(eth_miim_access.o)
 .reginfo       0x00000000       0x18 /opt/microchip/mplabc32/v2.02/bin/../lib/gcc/pic32mx/4.5.1/../../../../pic32mx/lib/libmchp_peripheral_32MX795F512L.a(eth_miim_legacy.o)
 .pdr           0x00000000       0xc0 /opt/microchip/mplabc32/v2.02/bin/../lib/gcc/pic32mx/4.5.1/../../../../pic32mx/lib/libmchp_peripheral_32MX795F512L.a(eth_miim_legacy.o)
 .reginfo       0x00000000       0x18 /opt/microchip/mplabc32/v2.02/bin/../lib/gcc/pic32mx/4.5.1/../../../../pic32mx/lib/libmchp_peripheral_32MX795F512L.a(soft_reset_lib.o)
 .pdr           0x00000000       0x20 /opt/microchip/mplabc32/v2.02/bin/../lib/gcc/pic32mx/4.5.1/../../../../pic32mx/lib/libmchp_peripheral_32MX795F512L.a(soft_reset_lib.o)
 .reginfo       0x00000000       0x18 /opt/microchip/mplabc32/v2.02/bin/../lib/gcc/pic32mx/4.5.1/../../../../pic32mx/lib/libmchp_peripheral_32MX795F512L.a(pcache.o)
 .pdr           0x00000000       0x40 /opt/microchip/mplabc32/v2.02/bin/../lib/gcc/pic32mx/4.5.1/../../../../pic32mx/lib/libmchp_peripheral_32MX795F512L.a(pcache.o)
 .reginfo       0x00000000       0x18 /opt/microchip/mplabc32/v2.02/bin/../lib/gcc/pic32mx/4.5.1/../../../../pic32mx/lib/libmchp_peripheral_32MX795F512L.a(int_disable_interrupts_lib.o)
 .pdr           0x00000000       0x20 /opt/microchip/mplabc32/v2.02/bin/../lib/gcc/pic32mx/4.5.1/../../../../pic32mx/lib/libmchp_peripheral_32MX795F512L.a(int_disable_interrupts_lib.o)
 .reginfo       0x00000000       0x18 /opt/microchip/mplabc32/v2.02/bin/../lib/gcc/pic32mx/4.5.1/../../../../pic32mx/lib/libmchp_peripheral_32MX795F512L.a(int_restore_interrupts_lib.o)
 .pdr           0x00000000       0x20 /opt/microchip/mplabc32/v2.02/bin/../lib/gcc/pic32mx/4.5.1/../../../../pic32mx/lib/libmchp_peripheral_32MX795F512L.a(int_restore_interrupts_lib.o)
 .reginfo       0x00000000       0x18 /opt/microchip/mplabc32/v2.02/bin/../lib/gcc/pic32mx/4.5.1/../../../../pic32mx/lib/libmchp_peripheral_32MX795F512L.a(int_enable_mv_int_lib.o)
 .pdr           0x00000000       0x20 /opt/microchip/mplabc32/v2.02/bin/../lib/gcc/pic32mx/4.5.1/../../../../pic32mx/lib/libmchp_peripheral_32MX795F512L.a(int_enable_mv_int_lib.o)
 .reginfo       0x00000000       0x18 /opt/microchip/mplabc32/v2.02/bin/../lib/gcc/pic32mx/4.5.1/../../../../pic32mx/lib/libmchp_peripheral_32MX795F512L.a(int_tbl_lib.o)
 .pdr           0x00000000      0x120 /opt/microchip/mplabc32/v2.02/bin/../lib/gcc/pic32mx/4.5.1/../../../../pic32mx/lib/libmchp_peripheral_32MX795F512L.a(int_tbl_lib.o)
 .reginfo       0x00000000       0x18 /opt/microchip/mplabc32/v2.02/bin/../lib/gcc/pic32mx/4.5.1/../../../../pic32mx/lib/libmchp_peripheral_32MX795F512L.a(nvm_erase_page_lib.o)
 .pdr           0x00000000       0x20 /opt/microchip/mplabc32/v2.02/bin/../lib/gcc/pic32mx/4.5.1/../../../../pic32mx/lib/libmchp_peripheral_32MX795F512L.a(nvm_erase_page_lib.o)
 .reginfo       0x00000000       0x18 /opt/microchip/mplabc32/v2.02/bin/../lib/gcc/pic32mx/4.5.1/../../../../pic32mx/lib/libmchp_peripheral_32MX795F512L.a(nvm_operation_lib.o)
 .pdr           0x00000000       0x20 /opt/microchip/mplabc32/v2.02/bin/../lib/gcc/pic32mx/4.5.1/../../../../pic32mx/lib/libmchp_peripheral_32MX795F512L.a(nvm_operation_lib.o)
 .reginfo       0x00000000       0x18 /opt/microchip/mplabc32/v2.02/bin/../lib/gcc/pic32mx/4.5.1/../../../../pic32mx/lib/libmchp_peripheral_32MX795F512L.a(nvm_write_row_lib.o)
 .pdr           0x00000000       0x20 /opt/microchip/mplabc32/v2.02/bin/../lib/gcc/pic32mx/4.5.1/../../../../pic32mx/lib/libmchp_peripheral_32MX795F512L.a(nvm_write_row_lib.o)
 .reginfo       0x00000000       0x18 /opt/microchip/mplabc32/v2.02/bin/../lib/gcc/pic32mx/4.5.1/../../../../pic32mx/lib/libmchp_peripheral_32MX795F512L.a(port_set_pins_digital_in_lib.o)
 .pdr           0x00000000       0x20 /opt/microchip/mplabc32/v2.02/bin/../lib/gcc/pic32mx/4.5.1/../../../../pic32mx/lib/libmchp_peripheral_32MX795F512L.a(port_set_pins_digital_in_lib.o)
 .reginfo       0x00000000       0x18 /opt/microchip/mplabc32/v2.02/bin/../lib/gcc/pic32mx/4.5.1/../../../../pic32mx/lib/libmchp_peripheral_32MX795F512L.a(port_set_pins_digital_out_lib.o)
 .pdr           0x00000000       0x20 /opt/microchip/mplabc32/v2.02/bin/../lib/gcc/pic32mx/4.5.1/../../../../pic32mx/lib/libmchp_peripheral_32MX795F512L.a(port_set_pins_digital_out_lib.o)
 .reginfo       0x00000000       0x18 /opt/microchip/mplabc32/v2.02/bin/../lib/gcc/pic32mx/4.5.1/../../../../pic32mx/lib/libmchp_peripheral_32MX795F512L.a(_ports_tbl_libp.o)
 .pdr           0x00000000        0x0 /opt/microchip/mplabc32/v2.02/bin/../lib/gcc/pic32mx/4.5.1/../../../../pic32mx/lib/libmchp_peripheral_32MX795F512L.a(_ports_tbl_libp.o)
 .reginfo       0x00000000       0x18 /opt/microchip/mplabc32/v2.02/bin/../lib/gcc/pic32mx/4.5.1/../../../../pic32mx/lib/libmchp_peripheral_32MX795F512L.a(I2CAcknowledgeByte.o)
 .pdr           0x00000000       0x20 /opt/microchip/mplabc32/v2.02/bin/../lib/gcc/pic32mx/4.5.1/../../../../pic32mx/lib/libmchp_peripheral_32MX795F512L.a(I2CAcknowledgeByte.o)
 .reginfo       0x00000000       0x18 /opt/microchip/mplabc32/v2.02/bin/../lib/gcc/pic32mx/4.5.1/../../../../pic32mx/lib/libmchp_peripheral_32MX795F512L.a(I2CBusIsIdle.o)
 .pdr           0x00000000       0x20 /opt/microchip/mplabc32/v2.02/bin/../lib/gcc/pic32mx/4.5.1/../../../../pic32mx/lib/libmchp_peripheral_32MX795F512L.a(I2CBusIsIdle.o)
 .reginfo       0x00000000       0x18 /opt/microchip/mplabc32/v2.02/bin/../lib/gcc/pic32mx/4.5.1/../../../../pic32mx/lib/libmchp_peripheral_32MX795F512L.a(I2CByteWasAcknowledged.o)
 .pdr           0x00000000       0x20 /opt/microchip/mplabc32/v2.02/bin/../lib/gcc/pic32mx/4.5.1/../../../../pic32mx/lib/libmchp_peripheral_32MX795F512L.a(I2CByteWasAcknowledged.o)
 .reginfo       0x00000000       0x18 /opt/microchip/mplabc32/v2.02/bin/../lib/gcc/pic32mx/4.5.1/../../../../pic32mx/lib/libmchp_peripheral_32MX795F512L.a(I2CClearStatus.o)
 .pdr           0x00000000       0x20 /opt/microchip/mplabc32/v2.02/bin/../lib/gcc/pic32mx/4.5.1/../../../../pic32mx/lib/libmchp_peripheral_32MX795F512L.a(I2CClearStatus.o)
 .reginfo       0x00000000       0x18 /opt/microchip/mplabc32/v2.02/bin/../lib/gcc/pic32mx/4.5.1/../../../../pic32mx/lib/libmchp_peripheral_32MX795F512L.a(I2CConfigure.o)
 .pdr           0x00000000       0x20 /opt/microchip/mplabc32/v2.02/bin/../lib/gcc/pic32mx/4.5.1/../../../../pic32mx/lib/libmchp_peripheral_32MX795F512L.a(I2CConfigure.o)
 .reginfo       0x00000000       0x18 /opt/microchip/mplabc32/v2.02/bin/../lib/gcc/pic32mx/4.5.1/../../../../pic32mx/lib/libmchp_peripheral_32MX795F512L.a(I2CEnable.o)
 .pdr           0x00000000       0x20 /opt/microchip/mplabc32/v2.02/bin/../lib/gcc/pic32mx/4.5.1/../../../../pic32mx/lib/libmchp_peripheral_32MX795F512L.a(I2CEnable.o)
 .reginfo       0x00000000       0x18 /opt/microchip/mplabc32/v2.02/bin/../lib/gcc/pic32mx/4.5.1/../../../../pic32mx/lib/libmchp_peripheral_32MX795F512L.a(I2CGetByte.o)
 .pdr           0x00000000       0x20 /opt/microchip/mplabc32/v2.02/bin/../lib/gcc/pic32mx/4.5.1/../../../../pic32mx/lib/libmchp_peripheral_32MX795F512L.a(I2CGetByte.o)
 .reginfo       0x00000000       0x18 /opt/microchip/mplabc32/v2.02/bin/../lib/gcc/pic32mx/4.5.1/../../../../pic32mx/lib/libmchp_peripheral_32MX795F512L.a(I2CGetStatus.o)
 .pdr           0x00000000       0x20 /opt/microchip/mplabc32/v2.02/bin/../lib/gcc/pic32mx/4.5.1/../../../../pic32mx/lib/libmchp_peripheral_32MX795F512L.a(I2CGetStatus.o)
 .reginfo       0x00000000       0x18 /opt/microchip/mplabc32/v2.02/bin/../lib/gcc/pic32mx/4.5.1/../../../../pic32mx/lib/libmchp_peripheral_32MX795F512L.a(I2CReceivedDataIsAvailable.o)
 .pdr           0x00000000       0x20 /opt/microchip/mplabc32/v2.02/bin/../lib/gcc/pic32mx/4.5.1/../../../../pic32mx/lib/libmchp_peripheral_32MX795F512L.a(I2CReceivedDataIsAvailable.o)
 .reginfo       0x00000000       0x18 /opt/microchip/mplabc32/v2.02/bin/../lib/gcc/pic32mx/4.5.1/../../../../pic32mx/lib/libmchp_peripheral_32MX795F512L.a(I2CReceiverEnable.o)
 .pdr           0x00000000       0x20 /opt/microchip/mplabc32/v2.02/bin/../lib/gcc/pic32mx/4.5.1/../../../../pic32mx/lib/libmchp_peripheral_32MX795F512L.a(I2CReceiverEnable.o)
 .reginfo       0x00000000       0x18 /opt/microchip/mplabc32/v2.02/bin/../lib/gcc/pic32mx/4.5.1/../../../../pic32mx/lib/libmchp_peripheral_32MX795F512L.a(I2CRepeatStart.o)
 .pdr           0x00000000       0x20 /opt/microchip/mplabc32/v2.02/bin/../lib/gcc/pic32mx/4.5.1/../../../../pic32mx/lib/libmchp_peripheral_32MX795F512L.a(I2CRepeatStart.o)
 .reginfo       0x00000000       0x18 /opt/microchip/mplabc32/v2.02/bin/../lib/gcc/pic32mx/4.5.1/../../../../pic32mx/lib/libmchp_peripheral_32MX795F512L.a(I2CSendByte.o)
 .pdr           0x00000000       0x20 /opt/microchip/mplabc32/v2.02/bin/../lib/gcc/pic32mx/4.5.1/../../../../pic32mx/lib/libmchp_peripheral_32MX795F512L.a(I2CSendByte.o)
 .reginfo       0x00000000       0x18 /opt/microchip/mplabc32/v2.02/bin/../lib/gcc/pic32mx/4.5.1/../../../../pic32mx/lib/libmchp_peripheral_32MX795F512L.a(I2CSetFrequency.o)
 .pdr           0x00000000       0x20 /opt/microchip/mplabc32/v2.02/bin/../lib/gcc/pic32mx/4.5.1/../../../../pic32mx/lib/libmchp_peripheral_32MX795F512L.a(I2CSetFrequency.o)
 .reginfo       0x00000000       0x18 /opt/microchip/mplabc32/v2.02/bin/../lib/gcc/pic32mx/4.5.1/../../../../pic32mx/lib/libmchp_peripheral_32MX795F512L.a(I2CStart.o)
 .pdr           0x00000000       0x20 /opt/microchip/mplabc32/v2.02/bin/../lib/gcc/pic32mx/4.5.1/../../../../pic32mx/lib/libmchp_peripheral_32MX795F512L.a(I2CStart.o)
 .reginfo       0x00000000       0x18 /opt/microchip/mplabc32/v2.02/bin/../lib/gcc/pic32mx/4.5.1/../../../../pic32mx/lib/libmchp_peripheral_32MX795F512L.a(I2CStop.o)
 .pdr           0x00000000       0x20 /opt/microchip/mplabc32/v2.02/bin/../lib/gcc/pic32mx/4.5.1/../../../../pic32mx/lib/libmchp_peripheral_32MX795F512L.a(I2CStop.o)
 .reginfo       0x00000000       0x18 /opt/microchip/mplabc32/v2.02/bin/../lib/gcc/pic32mx/4.5.1/../../../../pic32mx/lib/libmchp_peripheral_32MX795F512L.a(I2CTransmissionHasCompleted.o)
 .pdr           0x00000000       0x20 /opt/microchip/mplabc32/v2.02/bin/../lib/gcc/pic32mx/4.5.1/../../../../pic32mx/lib/libmchp_peripheral_32MX795F512L.a(I2CTransmissionHasCompleted.o)
 .reginfo       0x00000000       0x18 /opt/microchip/mplabc32/v2.02/bin/../lib/gcc/pic32mx/4.5.1/../../../../pic32mx/lib/libmchp_peripheral_32MX795F512L.a(I2CTransmitterIsReady.o)
 .pdr           0x00000000       0x20 /opt/microchip/mplabc32/v2.02/bin/../lib/gcc/pic32mx/4.5.1/../../../../pic32mx/lib/libmchp_peripheral_32MX795F512L.a(I2CTransmitterIsReady.o)
 .reginfo       0x00000000       0x18 /opt/microchip/mplabc32/v2.02/bin/../lib/gcc/pic32mx/4.5.1/../../../../pic32mx/lib/libmchp_peripheral_32MX795F512L.a(int_enable_interrupts_lib.o)
 .pdr           0x00000000       0x20 /opt/microchip/mplabc32/v2.02/bin/../lib/gcc/pic32mx/4.5.1/../../../../pic32mx/lib/libmchp_peripheral_32MX795F512L.a(int_enable_interrupts_lib.o)
 .reginfo       0x00000000       0x18 /opt/microchip/mplabc32/v2.02/bin/../lib/gcc/pic32mx/4.5.1/../../../../pic32mx/lib/libmchp_peripheral_32MX795F512L.a(I2CPrivate.o)
 .pdr           0x00000000        0x0 /opt/microchip/mplabc32/v2.02/bin/../lib/gcc/pic32mx/4.5.1/../../../../pic32mx/lib/libmchp_peripheral_32MX795F512L.a(I2CPrivate.o)
 .reginfo       0x00000000       0x18 /opt/microchip/mplabc32/v2.02/bin/../lib/gcc/pic32mx/4.5.1/../../../../pic32mx/lib/libc.a(calloc.o)
 .pdr           0x00000000       0x20 /opt/microchip/mplabc32/v2.02/bin/../lib/gcc/pic32mx/4.5.1/../../../../pic32mx/lib/libc.a(calloc.o)
 .reginfo       0x00000000       0x18 /opt/microchip/mplabc32/v2.02/bin/../lib/gcc/pic32mx/4.5.1/libgcc.a(_floatundisf.o)
 .pdr           0x00000000       0x20 /opt/microchip/mplabc32/v2.02/bin/../lib/gcc/pic32mx/4.5.1/libgcc.a(_floatundisf.o)
 .reginfo       0x00000000       0x18 /opt/microchip/mplabc32/v2.02/bin/../lib/gcc/pic32mx/4.5.1/libgcc.a(_umoddi3.o)
 .pdr           0x00000000       0x20 /opt/microchip/mplabc32/v2.02/bin/../lib/gcc/pic32mx/4.5.1/libgcc.a(_umoddi3.o)
 .reginfo       0x00000000       0x18 /opt/microchip/mplabc32/v2.02/bin/../lib/gcc/pic32mx/4.5.1/../../../../pic32mx/lib/./proc/32MX795F512L/processor.o
 .pdr           0x00000000        0x0 /opt/microchip/mplabc32/v2.02/bin/../lib/gcc/pic32mx/4.5.1/../../../../pic32mx/lib/./proc/32MX795F512L/processor.o

Memory Configuration

Name             Origin             Length             Attributes
kseg0_program_mem 0x9d000000         0x00080000         xr
kseg0_boot_mem   0x9fc00490         0x00000970
exception_mem    0x9fc01000         0x00001000
kseg1_boot_mem   0xbfc00000         0x00000490
debug_exec_mem   0xbfc02000         0x00000ff0
config3          0xbfc02ff0         0x00000004
config2          0xbfc02ff4         0x00000004
config1          0xbfc02ff8         0x00000004
config0          0xbfc02ffc         0x00000004
kseg1_data_mem   0xa0000000         0x00020000         w !x
sfrs             0xbf800000         0x00100000
configsfrs       0xbfc02ff0         0x00000010
*default*        0x00000000         0xffffffff

Linker script and memory map

LOAD /opt/microchip/mplabc32/v2.02/bin/../lib/gcc/pic32mx/4.5.1/../../../../pic32mx/lib/crt0.o
                0x00000001                _DEBUGGER = 0x1
LOAD build/Debug/debug/_ext/100901378/WFScan.o
LOAD build/Debug/debug/_ext/100901378/WF_Spi.o
LOAD build/Debug/debug/_ext/100901378/WFEasyConfig.o
LOAD build/Debug/debug/_ext/100901378/WFConsole.o
LOAD build/Debug/debug/_ext/100901378/WF_Eint.o
LOAD build/Debug/debug/_ext/100901378/WFConnectionManager.o
LOAD build/Debug/debug/_ext/100901378/WFPowerSave.o
LOAD build/Debug/debug/_ext/100901378/WFParamMsg.o
LOAD build/Debug/debug/_ext/100901378/WFConnectionProfile.o
LOAD build/Debug/debug/_ext/100901378/WFDriverRaw.o
LOAD build/Debug/debug/_ext/100901378/WFConsoleIwpriv.o
LOAD build/Debug/debug/_ext/100901378/WFTxPower.o
LOAD build/Debug/debug/_ext/100901378/WFInit.o
LOAD build/Debug/debug/_ext/100901378/WFDriverCom.o
LOAD build/Debug/debug/_ext/100901378/WFConsoleMsgHandler.o
LOAD build/Debug/debug/_ext/100901378/WFEventHandler.o
LOAD build/Debug/debug/_ext/100901378/WFConsoleIwconfig.o
LOAD build/Debug/debug/_ext/100901378/WFConsoleIfconfig.o
LOAD build/Debug/debug/_ext/100901378/WFConnectionAlgorithm.o
LOAD build/Debug/debug/_ext/100901378/WFMac.o
LOAD build/Debug/debug/_ext/100901378/WFDataTxRx.o
LOAD build/Debug/debug/_ext/100901378/WFMgmtMsg.o
LOAD build/Debug/debug/_ext/100901378/WFConsoleMsgs.o
LOAD build/Debug/debug/_ext/867694782/TFTPc.o
LOAD build/Debug/debug/_ext/867694782/Announce.o
LOAD build/Debug/debug/_ext/867694782/CAN2TCPBridge.o
LOAD build/Debug/debug/_ext/867694782/FTP.o
LOAD build/Debug/debug/_ext/867694782/ENC28J60.o
LOAD build/Debug/debug/_ext/867694782/SPIRAM.o
LOAD build/Debug/debug/_ext/867694782/SNMP.o
LOAD build/Debug/debug/_ext/867694782/Hashes.o
LOAD build/Debug/debug/_ext/867694782/LCDBlocking.o
LOAD build/Debug/debug/_ext/867694782/StackTsk.o
LOAD build/Debug/debug/_ext/867694782/ARP.o
LOAD build/Debug/debug/_ext/867694782/HTTP.o
LOAD build/Debug/debug/_ext/867694782/SNTP.o
LOAD build/Debug/debug/_ext/867694782/RSA.o
LOAD build/Debug/debug/_ext/867694782/UART.o
LOAD build/Debug/debug/_ext/867694782/ZeroconfHelper.o
LOAD build/Debug/debug/_ext/867694782/HTTP2.o
LOAD build/Debug/debug/_ext/867694782/ZeroconfMulticastDNS.o
LOAD build/Debug/debug/_ext/867694782/NBNS.o
LOAD build/Debug/debug/_ext/867694782/ENCX24J600.o
LOAD build/Debug/debug/_ext/867694782/BerkeleyAPI.o
LOAD build/Debug/debug/_ext/867694782/TCPPerformanceTest.o
LOAD build/Debug/debug/_ext/867694782/UART2TCPBridge.o
LOAD build/Debug/debug/_ext/867694782/AutoIP.o
LOAD build/Debug/debug/_ext/867694782/DHCPs.o
LOAD build/Debug/debug/_ext/867694782/DHCP.o
LOAD build/Debug/debug/_ext/867694782/Reboot.o
LOAD build/Debug/debug/_ext/867694782/SPIEEPROM.o
LOAD build/Debug/debug/_ext/867694782/SSL.o
LOAD build/Debug/debug/_ext/867694782/Delay.o
LOAD build/Debug/debug/_ext/867694782/SPIFlash.o
LOAD build/Debug/debug/_ext/867694782/DNSs.o
LOAD build/Debug/debug/_ext/867694782/BigInt.o
LOAD build/Debug/debug/_ext/867694782/UDP.o
LOAD build/Debug/debug/_ext/867694782/DNS.o
LOAD build/Debug/debug/_ext/867694782/ICMP.o
LOAD build/Debug/debug/_ext/867694782/ETHPIC32IntMac.o
LOAD build/Debug/debug/_ext/867694782/ETH97J60.o
LOAD build/Debug/debug/_ext/867694782/Helpers.o
LOAD build/Debug/debug/_ext/867694782/ZeroconfLinkLocal.o
LOAD build/Debug/debug/_ext/867694782/IP.o
LOAD build/Debug/debug/_ext/867694782/TCP.o
LOAD build/Debug/debug/_ext/867694782/ETHPIC32ExtPhyDP83848.o
LOAD build/Debug/debug/_ext/867694782/SMTP.o
LOAD build/Debug/debug/_ext/867694782/Tick.o
LOAD build/Debug/debug/_ext/867694782/Telnet.o
LOAD build/Debug/debug/_ext/867694782/ETHPIC32ExtPhy.o
LOAD build/Debug/debug/_ext/867694782/Random.o
LOAD build/Debug/debug/_ext/867694782/MPFS.o
LOAD build/Debug/debug/_ext/867694782/MPFS2.o
LOAD build/Debug/debug/_ext/867694782/DynDNS.o
LOAD build/Debug/debug/_ext/867694782/UDPPerformanceTest.o
LOAD build/Debug/debug/_ext/867694782/ARCFOUR.o
LOAD build/Debug/debug/_ext/1472/i2c_support.o
LOAD build/Debug/debug/_ext/1472/main.o
LOAD build/Debug/debug/_ext/1472/MyTFTP.o
LOAD build/Debug/debug/_ext/1472/Settings.o
LOAD build/Debug/debug/_ext/1472/HodoCrate.o
LOAD build/Debug/debug/_ext/1472/BerkeleyTCPServerDemo.o
LOAD build/Debug/debug/_ext/1472/PingDemo.o
                0x00000001                __MPLAB_BUILD = 0x1
                0x00000001                __ICD2RAM = 0x1
                0x00000001                __MPLAB_DEBUG = 0x1
                0x00000001                __DEBUG = 0x1
                0x00000001                __MPLAB_DEBUGGER_PIC32MXSK = 0x1
                0x00003e80                _min_heap_size = 0x3e80
                0x00000800                _min_stack_size = 0x800
LOAD /opt/microchip/mplabc32/v2.02/bin/../lib/gcc/pic32mx/4.5.1/libgcc.a
START GROUP
LOAD /opt/microchip/mplabc32/v2.02/bin/../lib/gcc/pic32mx/4.5.1/../../../../pic32mx/lib/libdebug.a
LOAD /opt/microchip/mplabc32/v2.02/bin/../lib/gcc/pic32mx/4.5.1/../../../../pic32mx/lib/libc.a
LOAD /opt/microchip/mplabc32/v2.02/bin/../lib/gcc/pic32mx/4.5.1/../../../../pic32mx/lib/libm.a
LOAD /opt/microchip/mplabc32/v2.02/bin/../lib/gcc/pic32mx/4.5.1/../../../../pic32mx/lib/libe.a
LOAD /opt/microchip/mplabc32/v2.02/bin/../lib/gcc/pic32mx/4.5.1/../../../../pic32mx/lib/libdsp.a
LOAD /opt/microchip/mplabc32/v2.02/bin/../lib/gcc/pic32mx/4.5.1/../../../../pic32mx/lib/libmchp_peripheral.a
LOAD /opt/microchip/mplabc32/v2.02/bin/../lib/gcc/pic32mx/4.5.1/../../../../pic32mx/lib/libmchp_peripheral_32MX795F512L.a
END GROUP
LOAD /opt/microchip/mplabc32/v2.02/bin/../lib/gcc/pic32mx/4.5.1/libgcc.a
                0x00000400                PROVIDE (_min_stack_size, 0x400)
                0x00000000                PROVIDE (_min_heap_size, 0x0)
LOAD /opt/microchip/mplabc32/v2.02/bin/../lib/gcc/pic32mx/4.5.1/../../../../pic32mx/lib/./proc/32MX795F512L/processor.o
                0x00000001                PROVIDE (_vector_spacing, 0x1)
                0x9fc01000                _ebase_address = 0x9fc01000
                0xbfc00000                _RESET_ADDR = 0xbfc00000
                0xbfc00380                _BEV_EXCPT_ADDR = 0xbfc00380
                0xbfc00480                _DBG_EXCPT_ADDR = 0xbfc00480
                0xbfc02000                _DBG_CODE_ADDR = 0xbfc02000
                0x00000ff0                _DBG_CODE_SIZE = 0xff0
                0x9fc01180                _GEN_EXCPT_ADDR = (_ebase_address + 0x180)

.config_BFC02FF0
                0xbfc02ff0        0x4
 *(.config_BFC02FF0)
 .config_BFC02FF0
                0xbfc02ff0        0x4 build/Debug/debug/_ext/1472/main.o

.config_BFC02FF4
                0xbfc02ff4        0x4
 *(.config_BFC02FF4)
 .config_BFC02FF4
                0xbfc02ff4        0x4 build/Debug/debug/_ext/1472/main.o

.config_BFC02FF8
                0xbfc02ff8        0x4
 *(.config_BFC02FF8)
 .config_BFC02FF8
                0xbfc02ff8        0x4 build/Debug/debug/_ext/1472/main.o

.config_BFC02FFC
                0xbfc02ffc        0x4
 *(.config_BFC02FFC)
 .config_BFC02FFC
                0xbfc02ffc        0x4 build/Debug/debug/_ext/1472/main.o
                0xbfc02000                PROVIDE (_DBG_CODE_ADDR, 0xbfc02000)
                0x00000ff0                PROVIDE (_DBG_CODE_SIZE, 0xff0)

.reset          0xbfc00000      0x1f4
 *(.reset)
 .reset         0xbfc00000       0x10 /opt/microchip/mplabc32/v2.02/bin/../lib/gcc/pic32mx/4.5.1/../../../../pic32mx/lib/crt0.o
                0xbfc00000                _reset
 *(.reset.startup)
 .reset.startup
                0xbfc00010      0x1e4 /opt/microchip/mplabc32/v2.02/bin/../lib/gcc/pic32mx/4.5.1/../../../../pic32mx/lib/crt0.o

.bev_excpt      0xbfc00380       0x10
 *(.bev_handler)
 .bev_handler   0xbfc00380       0x10 /opt/microchip/mplabc32/v2.02/bin/../lib/gcc/pic32mx/4.5.1/../../../../pic32mx/lib/crt0.o

.dbg_excpt      0xbfc00480        0x8
                0xbfc00480                . = (. + DEFINED (_DEBUGGER)?0x8:0x0)
 *fill*         0xbfc00480        0x8 00

.dbg_code       0xbfc02000      0xff0
                0xbfc02000                . = (. + DEFINED (_DEBUGGER)?_DBG_CODE_SIZE:0x0)
 *fill*         0xbfc02000      0xff0 00

.app_excpt      0x9fc01180       0x10
 *(.gen_handler)
 .gen_handler   0x9fc01180       0x10 /opt/microchip/mplabc32/v2.02/bin/../lib/gcc/pic32mx/4.5.1/../../../../pic32mx/lib/crt0.o

.vector_0       0x9fc01200        0x0
 *(.vector_0)
                0x00000001                ASSERT (((_vector_spacing == 0x0) || (SIZEOF (.vector_0) <= (_vector_spacing << 0x5))), function at exception vector 0 too large)

.vector_1       0x9fc01220        0x0
 *(.vector_1)
                0x00000001                ASSERT (((_vector_spacing == 0x0) || (SIZEOF (.vector_1) <= (_vector_spacing << 0x5))), function at exception vector 1 too large)

.vector_2       0x9fc01240        0x0
 *(.vector_2)
                0x00000001                ASSERT (((_vector_spacing == 0x0) || (SIZEOF (.vector_2) <= (_vector_spacing << 0x5))), function at exception vector 2 too large)

.vector_3       0x9fc01260        0x0
 *(.vector_3)
                0x00000001                ASSERT (((_vector_spacing == 0x0) || (SIZEOF (.vector_3) <= (_vector_spacing << 0x5))), function at exception vector 3 too large)

.vector_4       0x9fc01280        0x8
 *(.vector_4)
 .vector_4      0x9fc01280        0x8 build/Debug/debug/_ext/867694782/Tick.o
                0x00000001                ASSERT (((_vector_spacing == 0x0) || (SIZEOF (.vector_4) <= (_vector_spacing << 0x5))), function at exception vector 4 too large)

.vector_5       0x9fc012a0        0x0
 *(.vector_5)
                0x00000001                ASSERT (((_vector_spacing == 0x0) || (SIZEOF (.vector_5) <= (_vector_spacing << 0x5))), function at exception vector 5 too large)

.vector_6       0x9fc012c0        0x0
 *(.vector_6)
                0x00000001                ASSERT (((_vector_spacing == 0x0) || (SIZEOF (.vector_6) <= (_vector_spacing << 0x5))), function at exception vector 6 too large)

.vector_7       0x9fc012e0        0x0
 *(.vector_7)
                0x00000001                ASSERT (((_vector_spacing == 0x0) || (SIZEOF (.vector_7) <= (_vector_spacing << 0x5))), function at exception vector 7 too large)

.vector_8       0x9fc01300        0x0
 *(.vector_8)
                0x00000001                ASSERT (((_vector_spacing == 0x0) || (SIZEOF (.vector_8) <= (_vector_spacing << 0x5))), function at exception vector 8 too large)

.vector_9       0x9fc01320        0x0
 *(.vector_9)
                0x00000001                ASSERT (((_vector_spacing == 0x0) || (SIZEOF (.vector_9) <= (_vector_spacing << 0x5))), function at exception vector 9 too large)

.vector_10      0x9fc01340        0x0
 *(.vector_10)
                0x00000001                ASSERT (((_vector_spacing == 0x0) || (SIZEOF (.vector_10) <= (_vector_spacing << 0x5))), function at exception vector 10 too large)

.vector_11      0x9fc01360        0x0
 *(.vector_11)
                0x00000001                ASSERT (((_vector_spacing == 0x0) || (SIZEOF (.vector_11) <= (_vector_spacing << 0x5))), function at exception vector 11 too large)

.vector_12      0x9fc01380        0x0
 *(.vector_12)
                0x00000001                ASSERT (((_vector_spacing == 0x0) || (SIZEOF (.vector_12) <= (_vector_spacing << 0x5))), function at exception vector 12 too large)

.vector_13      0x9fc013a0        0x0
 *(.vector_13)
                0x00000001                ASSERT (((_vector_spacing == 0x0) || (SIZEOF (.vector_13) <= (_vector_spacing << 0x5))), function at exception vector 13 too large)

.vector_14      0x9fc013c0        0x0
 *(.vector_14)
                0x00000001                ASSERT (((_vector_spacing == 0x0) || (SIZEOF (.vector_14) <= (_vector_spacing << 0x5))), function at exception vector 14 too large)

.vector_15      0x9fc013e0        0x0
 *(.vector_15)
                0x00000001                ASSERT (((_vector_spacing == 0x0) || (SIZEOF (.vector_15) <= (_vector_spacing << 0x5))), function at exception vector 15 too large)

.vector_16      0x9fc01400        0x0
 *(.vector_16)
                0x00000001                ASSERT (((_vector_spacing == 0x0) || (SIZEOF (.vector_16) <= (_vector_spacing << 0x5))), function at exception vector 16 too large)

.vector_17      0x9fc01420        0x0
 *(.vector_17)
                0x00000001                ASSERT (((_vector_spacing == 0x0) || (SIZEOF (.vector_17) <= (_vector_spacing << 0x5))), function at exception vector 17 too large)

.vector_18      0x9fc01440        0x0
 *(.vector_18)
                0x00000001                ASSERT (((_vector_spacing == 0x0) || (SIZEOF (.vector_18) <= (_vector_spacing << 0x5))), function at exception vector 18 too large)

.vector_19      0x9fc01460        0x0
 *(.vector_19)
                0x00000001                ASSERT (((_vector_spacing == 0x0) || (SIZEOF (.vector_19) <= (_vector_spacing << 0x5))), function at exception vector 19 too large)

.vector_20      0x9fc01480        0x0
 *(.vector_20)
                0x00000001                ASSERT (((_vector_spacing == 0x0) || (SIZEOF (.vector_20) <= (_vector_spacing << 0x5))), function at exception vector 20 too large)

.vector_21      0x9fc014a0        0x0
 *(.vector_21)
                0x00000001                ASSERT (((_vector_spacing == 0x0) || (SIZEOF (.vector_21) <= (_vector_spacing << 0x5))), function at exception vector 21 too large)

.vector_22      0x9fc014c0        0x0
 *(.vector_22)
                0x00000001                ASSERT (((_vector_spacing == 0x0) || (SIZEOF (.vector_22) <= (_vector_spacing << 0x5))), function at exception vector 22 too large)

.vector_23      0x9fc014e0        0x0
 *(.vector_23)
                0x00000001                ASSERT (((_vector_spacing == 0x0) || (SIZEOF (.vector_23) <= (_vector_spacing << 0x5))), function at exception vector 23 too large)

.vector_24      0x9fc01500        0x0
 *(.vector_24)
                0x00000001                ASSERT (((_vector_spacing == 0x0) || (SIZEOF (.vector_24) <= (_vector_spacing << 0x5))), function at exception vector 24 too large)

.vector_25      0x9fc01520        0x0
 *(.vector_25)
                0x00000001                ASSERT (((_vector_spacing == 0x0) || (SIZEOF (.vector_25) <= (_vector_spacing << 0x5))), function at exception vector 25 too large)

.vector_26      0x9fc01540        0x0
 *(.vector_26)
                0x00000001                ASSERT (((_vector_spacing == 0x0) || (SIZEOF (.vector_26) <= (_vector_spacing << 0x5))), function at exception vector 26 too large)

.vector_27      0x9fc01560        0x0
 *(.vector_27)
                0x00000001                ASSERT (((_vector_spacing == 0x0) || (SIZEOF (.vector_27) <= (_vector_spacing << 0x5))), function at exception vector 27 too large)

.vector_28      0x9fc01580        0x0
 *(.vector_28)
                0x00000001                ASSERT (((_vector_spacing == 0x0) || (SIZEOF (.vector_28) <= (_vector_spacing << 0x5))), function at exception vector 28 too large)

.vector_29      0x9fc015a0        0x0
 *(.vector_29)
                0x00000001                ASSERT (((_vector_spacing == 0x0) || (SIZEOF (.vector_29) <= (_vector_spacing << 0x5))), function at exception vector 29 too large)

.vector_30      0x9fc015c0        0x0
 *(.vector_30)
                0x00000001                ASSERT (((_vector_spacing == 0x0) || (SIZEOF (.vector_30) <= (_vector_spacing << 0x5))), function at exception vector 30 too large)

.vector_31      0x9fc015e0        0x0
 *(.vector_31)
                0x00000001                ASSERT (((_vector_spacing == 0x0) || (SIZEOF (.vector_31) <= (_vector_spacing << 0x5))), function at exception vector 31 too large)

.vector_32      0x9fc01600        0x0
 *(.vector_32)
                0x00000001                ASSERT (((_vector_spacing == 0x0) || (SIZEOF (.vector_32) <= (_vector_spacing << 0x5))), function at exception vector 32 too large)

.vector_33      0x9fc01620        0x0
 *(.vector_33)
                0x00000001                ASSERT (((_vector_spacing == 0x0) || (SIZEOF (.vector_33) <= (_vector_spacing << 0x5))), function at exception vector 33 too large)

.vector_34      0x9fc01640        0x0
 *(.vector_34)
                0x00000001                ASSERT (((_vector_spacing == 0x0) || (SIZEOF (.vector_34) <= (_vector_spacing << 0x5))), function at exception vector 34 too large)

.vector_35      0x9fc01660        0x0
 *(.vector_35)
                0x00000001                ASSERT (((_vector_spacing == 0x0) || (SIZEOF (.vector_35) <= (_vector_spacing << 0x5))), function at exception vector 35 too large)

.vector_36      0x9fc01680        0x0
 *(.vector_36)
                0x00000001                ASSERT (((_vector_spacing == 0x0) || (SIZEOF (.vector_36) <= (_vector_spacing << 0x5))), function at exception vector 36 too large)

.vector_37      0x9fc016a0        0x0
 *(.vector_37)
                0x00000001                ASSERT (((_vector_spacing == 0x0) || (SIZEOF (.vector_37) <= (_vector_spacing << 0x5))), function at exception vector 37 too large)

.vector_38      0x9fc016c0        0x0
 *(.vector_38)
                0x00000001                ASSERT (((_vector_spacing == 0x0) || (SIZEOF (.vector_38) <= (_vector_spacing << 0x5))), function at exception vector 38 too large)

.vector_39      0x9fc016e0        0x0
 *(.vector_39)
                0x00000001                ASSERT (((_vector_spacing == 0x0) || (SIZEOF (.vector_39) <= (_vector_spacing << 0x5))), function at exception vector 39 too large)

.vector_40      0x9fc01700        0x0
 *(.vector_40)
                0x00000001                ASSERT (((_vector_spacing == 0x0) || (SIZEOF (.vector_40) <= (_vector_spacing << 0x5))), function at exception vector 40 too large)

.vector_41      0x9fc01720        0x0
 *(.vector_41)
                0x00000001                ASSERT (((_vector_spacing == 0x0) || (SIZEOF (.vector_41) <= (_vector_spacing << 0x5))), function at exception vector 41 too large)

.vector_42      0x9fc01740        0x0
 *(.vector_42)
                0x00000001                ASSERT (((_vector_spacing == 0x0) || (SIZEOF (.vector_42) <= (_vector_spacing << 0x5))), function at exception vector 42 too large)

.vector_43      0x9fc01760        0x0
 *(.vector_43)
                0x00000001                ASSERT (((_vector_spacing == 0x0) || (SIZEOF (.vector_43) <= (_vector_spacing << 0x5))), function at exception vector 43 too large)

.vector_44      0x9fc01780        0x0
 *(.vector_44)
                0x00000001                ASSERT (((_vector_spacing == 0x0) || (SIZEOF (.vector_44) <= (_vector_spacing << 0x5))), function at exception vector 44 too large)

.vector_45      0x9fc017a0        0x0
 *(.vector_45)
                0x00000001                ASSERT (((_vector_spacing == 0x0) || (SIZEOF (.vector_45) <= (_vector_spacing << 0x5))), function at exception vector 45 too large)

.vector_46      0x9fc017c0        0x0
 *(.vector_46)
                0x00000001                ASSERT (((_vector_spacing == 0x0) || (SIZEOF (.vector_46) <= (_vector_spacing << 0x5))), function at exception vector 46 too large)

.vector_47      0x9fc017e0        0x0
 *(.vector_47)
                0x00000001                ASSERT (((_vector_spacing == 0x0) || (SIZEOF (.vector_47) <= (_vector_spacing << 0x5))), function at exception vector 47 too large)

.vector_48      0x9fc01800        0x0
 *(.vector_48)
                0x00000001                ASSERT (((_vector_spacing == 0x0) || (SIZEOF (.vector_48) <= (_vector_spacing << 0x5))), function at exception vector 48 too large)

.vector_49      0x9fc01820        0x0
 *(.vector_49)
                0x00000001                ASSERT (((_vector_spacing == 0x0) || (SIZEOF (.vector_49) <= (_vector_spacing << 0x5))), function at exception vector 49 too large)

.vector_50      0x9fc01840        0x0
 *(.vector_50)
                0x00000001                ASSERT (((_vector_spacing == 0x0) || (SIZEOF (.vector_50) <= (_vector_spacing << 0x5))), function at exception vector 50 too large)

.vector_51      0x9fc01860        0x0
 *(.vector_51)
                0x00000001                ASSERT (((_vector_spacing == 0x0) || (SIZEOF (.vector_51) <= (_vector_spacing << 0x5))), function at exception vector 51 too large)

.vector_52      0x9fc01880        0x0
 *(.vector_52)
                0x00000001                ASSERT (((_vector_spacing == 0x0) || (SIZEOF (.vector_52) <= (_vector_spacing << 0x5))), function at exception vector 52 too large)

.vector_53      0x9fc018a0        0x0
 *(.vector_53)
                0x00000001                ASSERT (((_vector_spacing == 0x0) || (SIZEOF (.vector_53) <= (_vector_spacing << 0x5))), function at exception vector 53 too large)

.vector_54      0x9fc018c0        0x0
 *(.vector_54)
                0x00000001                ASSERT (((_vector_spacing == 0x0) || (SIZEOF (.vector_54) <= (_vector_spacing << 0x5))), function at exception vector 54 too large)

.vector_55      0x9fc018e0        0x0
 *(.vector_55)
                0x00000001                ASSERT (((_vector_spacing == 0x0) || (SIZEOF (.vector_55) <= (_vector_spacing << 0x5))), function at exception vector 55 too large)

.vector_56      0x9fc01900        0x0
 *(.vector_56)
                0x00000001                ASSERT (((_vector_spacing == 0x0) || (SIZEOF (.vector_56) <= (_vector_spacing << 0x5))), function at exception vector 56 too large)

.vector_57      0x9fc01920        0x0
 *(.vector_57)
                0x00000001                ASSERT (((_vector_spacing == 0x0) || (SIZEOF (.vector_57) <= (_vector_spacing << 0x5))), function at exception vector 57 too large)

.vector_58      0x9fc01940        0x0
 *(.vector_58)
                0x00000001                ASSERT (((_vector_spacing == 0x0) || (SIZEOF (.vector_58) <= (_vector_spacing << 0x5))), function at exception vector 58 too large)

.vector_59      0x9fc01960        0x0
 *(.vector_59)
                0x00000001                ASSERT (((_vector_spacing == 0x0) || (SIZEOF (.vector_59) <= (_vector_spacing << 0x5))), function at exception vector 59 too large)

.vector_60      0x9fc01980        0x0
 *(.vector_60)
                0x00000001                ASSERT (((_vector_spacing == 0x0) || (SIZEOF (.vector_60) <= (_vector_spacing << 0x5))), function at exception vector 60 too large)

.vector_61      0x9fc019a0        0x0
 *(.vector_61)
                0x00000001                ASSERT (((_vector_spacing == 0x0) || (SIZEOF (.vector_61) <= (_vector_spacing << 0x5))), function at exception vector 61 too large)

.vector_62      0x9fc019c0        0x0
 *(.vector_62)
                0x00000001                ASSERT (((_vector_spacing == 0x0) || (SIZEOF (.vector_62) <= (_vector_spacing << 0x5))), function at exception vector 62 too large)

.vector_63      0x9fc019e0        0x0
 *(.vector_63)
                0x00000001                ASSERT (((_vector_spacing == 0x0) || (SIZEOF (.vector_63) <= (_vector_spacing << 0x5))), function at exception vector 63 too large)

.startup
 *(.startup)

.text
 *(.stub .gnu.linkonce.t.*)
 *(.text.*personality*)
 *(.mips16.fn.*)
 *(.mips16.call.*)
 *(.gnu.warning)

.rodata         0x9d000000        0x0
 *(.rodata.* .gnu.linkonce.r.*)
 *(.rodata1)
                0x9d000000                . = ALIGN (0x4)

.sdata2         0x9fc00490        0x0
 *(.sdata2 .sdata2.* .gnu.linkonce.s2.*)
                0x9fc00490                . = ALIGN (0x4)

.sbss2          0x9fc00490        0x0
 *(.sbss2 .sbss2.* .gnu.linkonce.sb2.*)
                0x9fc00490                . = ALIGN (0x4)

.eh_frame_hdr
 *(.eh_frame_hdr)

.eh_frame
 *(.eh_frame)

.dbg_data       0xa0000000      0x200
                0xa0000000                . = (. + DEFINED (_DEBUGGER)?0x200:0x0)
 *fill*         0xa0000000      0x200 00

.persist        0xa0000200        0x0
                0xa0000200                _persist_begin = .
 *(.persist .persist.*)
                0xa0000200                . = ALIGN (0x4)
                0xa0000200                _persist_end = .

.eh_frame       0xa0000200       0x3c
 *(.eh_frame)
 .eh_frame      0xa0000200       0x28 /opt/microchip/mplabc32/v2.02/bin/../lib/gcc/pic32mx/4.5.1/libgcc.a(_udivdi3.o)
 .eh_frame      0xa0000228       0x14 /opt/microchip/mplabc32/v2.02/bin/../lib/gcc/pic32mx/4.5.1/libgcc.a(_umoddi3.o)
                                 0x28 (size before relaxing)
                0xa000023c                . = .
                0xa0008230                _gp = (ALIGN (0x10) + 0x7ff0)

.got
 *(.got.plt)
 *(.got)

.sdata          0xa000023c       0x10
                0xa000023c                _sdata_begin = .
 *(.sdata .sdata.* .gnu.linkonce.s.*)
 .sdata         0xa000023c        0x2 build/Debug/debug/_ext/867694782/BerkeleyAPI.o
 .sdata         0xa000023e        0x2 build/Debug/debug/_ext/867694782/UDP.o
 .sdata         0xa0000240        0x2 build/Debug/debug/_ext/867694782/TCP.o
 .sdata         0xa0000242        0x1 build/Debug/debug/_ext/1472/main.o
 .sdata         0xa0000243        0x1 build/Debug/debug/_ext/1472/MyTFTP.o
                0xa0000243                smDOWNLOAD
 .sdata         0xa0000244        0x4 /opt/microchip/mplabc32/v2.02/bin/../lib/gcc/pic32mx/4.5.1/../../../../pic32mx/lib/libc.a(c32_uart.o)
                0xa0000244                __C32_UART
 .sdata         0xa0000248        0x4 /opt/microchip/mplabc32/v2.02/bin/../lib/gcc/pic32mx/4.5.1/../../../../pic32mx/lib/libc.a(_iob.o)
                0xa0000248                _Files
                0xa000024c                _sdata_end = .

.lit8
 *(.lit8)

.lit4
 *(.lit4)
                0xa000024c                . = ALIGN (0x4)
                0xa000024c                _data_end = .
                0xa000024c                _bss_begin = .

.sbss           0xa000024c      0x118
                0xa000024c                _sbss_begin = .
 *(.dynsbss)
 *(.sbss .sbss.* .gnu.linkonce.sb.*)
 .sbss          0xa000024c       0x10 build/Debug/debug/_ext/867694782/TFTPc.o
 .sbss          0xa000025c        0xc build/Debug/debug/_ext/867694782/Announce.o
 .sbss          0xa0000268        0x8 build/Debug/debug/_ext/867694782/StackTsk.o
 .sbss          0xa0000270        0x8 build/Debug/debug/_ext/867694782/ARP.o
 .sbss          0xa0000278        0x4 build/Debug/debug/_ext/867694782/BerkeleyAPI.o
 .sbss          0xa000027c        0x4 build/Debug/debug/_ext/867694782/DHCP.o
                0xa000027c                DHCPClientInitializedOnce
 .sbss          0xa0000280        0x8 build/Debug/debug/_ext/867694782/UDP.o
 .sbss          0xa0000288       0x10 build/Debug/debug/_ext/867694782/ICMP.o
 .sbss          0xa0000298       0x40 build/Debug/debug/_ext/867694782/ETHPIC32IntMac.o
                0xa00002c4                _stackMgrRxOkPkts
                0xa00002c8                _stackMgrRxBadPkts
                0xa00002cc                _stackMgrInGetHdr
                0xa00002d0                _stackMgrRxDiscarded
                0xa00002d4                _stackMgrTxNotReady
 .sbss          0xa00002d8        0x4 build/Debug/debug/_ext/867694782/IP.o
 .sbss          0xa00002dc        0x2 build/Debug/debug/_ext/867694782/TCP.o
 *fill*         0xa00002de        0x2 00
 .sbss          0xa00002e0        0xc build/Debug/debug/_ext/867694782/Tick.o
 .sbss          0xa00002ec        0xc build/Debug/debug/_ext/1472/main.o
                0xa00002f0                nData
 .sbss          0xa00002f8        0xc build/Debug/debug/_ext/1472/MyTFTP.o
 .sbss          0xa0000304        0xc build/Debug/debug/_ext/1472/BerkeleyTCPServerDemo.o
 .sbss          0xa0000310        0x8 build/Debug/debug/_ext/1472/PingDemo.o
 .sbss          0xa0000318        0x8 /opt/microchip/mplabc32/v2.02/bin/../lib/gcc/pic32mx/4.5.1/../../../../pic32mx/lib/libc.a(sbrk.o)
                0xa0000318                _minbrk
                0xa000031c                _maxbrk
 .sbss          0xa0000320        0x1 /opt/microchip/mplabc32/v2.02/bin/../lib/gcc/pic32mx/4.5.1/../../../../pic32mx/lib/libc.a(_iob.o)
                0xa0000320                _outdone
 *fill*         0xa0000321        0x3 00
 .sbss          0xa0000324        0x4 /opt/microchip/mplabc32/v2.02/bin/../lib/gcc/pic32mx/4.5.1/../../../../pic32mx/lib/libc.a(errno.o)
                0xa0000324                errno
 .sbss          0xa0000328       0x20 /opt/microchip/mplabc32/v2.02/bin/../lib/gcc/pic32mx/4.5.1/../../../../pic32mx/lib/libmchp_peripheral_32MX795F512L.a(eth_descriptors_add_lib.o)
                0xa0000328                _EthTxFreeList
                0xa0000330                _EthTxBusyList
                0xa0000338                _EthRxFreeList
                0xa0000340                _EthRxBusyList
 *(.scommon)
 .scommon       0xa0000348        0x3 build/Debug/debug/_ext/867694782/TFTPc.o
                0xa0000348                _tftpError
                0xa000034a                _tftpSocket
 *fill*         0xa000034b        0x1 00
 .scommon       0xa000034c        0x6 build/Debug/debug/_ext/867694782/UDP.o
                0xa000034c                activeUDPSocket
                0xa000034e                UDPTxCount
                0xa0000350                UDPRxCount
 *fill*         0xa0000352        0x2 00
 .scommon       0xa0000354        0x4 build/Debug/debug/_ext/867694782/ETHPIC32ExtPhy.o
                0xa0000354                _PhyAdd
 .scommon       0xa0000358        0xc build/Debug/debug/_ext/1472/main.o
                0xa0000358                MyHodoCrate
                0xa000035c                AN0String
                0xa0000364                _sbss_end = .

.bss            0xa0000364      0x4cc
 *(.dynbss)
 *(COMMON)
 COMMON         0xa0000364        0xa build/Debug/debug/_ext/867694782/StackTsk.o
                0xa0000364                remoteNode
 *fill*         0xa000036e        0x2 00
 COMMON         0xa0000370       0x8c build/Debug/debug/_ext/867694782/UDP.o
                0xa0000370                UDPSocketInfo
 COMMON         0xa00003fc      0x433 build/Debug/debug/_ext/1472/main.o
                0xa00003fc                CurSettings
                0xa00005fc                FirmSettings
                0xa00007fc                AppConfig
                0xa0000830                . = ALIGN (0x4)
 *fill*         0xa000082f        0x1 00
                0xa0000830                . = ALIGN (0x4)
                0xa0000830                _end = .
                0xa0000830                _bss_end = .
                0x00020000                _bmxdudba_address = 0x20000
                0x00020000                _bmxdupba_address = 0x20000

/DISCARD/
 *(.pdr)
 *(.reginfo)
 *(.rel.dyn)
 *(.note.GNU-stack)
 *(.note.GNU-stack)
 *(.gnu_debuglink)
 *(.gnu.lto_*)
 *(.discard)

.stab
 *(.stab)

.stabstr
 *(.stabstr)

.stab.excl
 *(.stab.excl)

.stab.exclstr
 *(.stab.exclstr)

.stab.index
 *(.stab.index)

.stab.indexstr
 *(.stab.indexstr)

.comment        0x00000000      0x382
 *(.comment)
 .comment       0x00000000       0x51 build/Debug/debug/_ext/100901378/WFScan.o
                                 0x52 (size before relaxing)
 .comment       0x00000000       0x52 build/Debug/debug/_ext/100901378/WF_Spi.o
 .comment       0x00000000       0x52 build/Debug/debug/_ext/100901378/WFEasyConfig.o
 .comment       0x00000000       0x52 build/Debug/debug/_ext/100901378/WFConsole.o
 .comment       0x00000000       0x52 build/Debug/debug/_ext/100901378/WF_Eint.o
 .comment       0x00000000       0x52 build/Debug/debug/_ext/100901378/WFConnectionManager.o
 .comment       0x00000000       0x52 build/Debug/debug/_ext/100901378/WFPowerSave.o
 .comment       0x00000000       0x52 build/Debug/debug/_ext/100901378/WFParamMsg.o
 .comment       0x00000000       0x52 build/Debug/debug/_ext/100901378/WFConnectionProfile.o
 .comment       0x00000000       0x52 build/Debug/debug/_ext/100901378/WFDriverRaw.o
 .comment       0x00000000       0x52 build/Debug/debug/_ext/100901378/WFConsoleIwpriv.o
 .comment       0x00000000       0x52 build/Debug/debug/_ext/100901378/WFTxPower.o
 .comment       0x00000000       0x52 build/Debug/debug/_ext/100901378/WFInit.o
 .comment       0x00000000       0x52 build/Debug/debug/_ext/100901378/WFDriverCom.o
 .comment       0x00000000       0x52 build/Debug/debug/_ext/100901378/WFConsoleMsgHandler.o
 .comment       0x00000000       0x52 build/Debug/debug/_ext/100901378/WFEventHandler.o
 .comment       0x00000000       0x52 build/Debug/debug/_ext/100901378/WFConsoleIwconfig.o
 .comment       0x00000000       0x52 build/Debug/debug/_ext/100901378/WFConsoleIfconfig.o
 .comment       0x00000000       0x52 build/Debug/debug/_ext/100901378/WFConnectionAlgorithm.o
 .comment       0x00000000       0x52 build/Debug/debug/_ext/100901378/WFMac.o
 .comment       0x00000000       0x52 build/Debug/debug/_ext/100901378/WFDataTxRx.o
 .comment       0x00000000       0x52 build/Debug/debug/_ext/100901378/WFMgmtMsg.o
 .comment       0x00000000       0x52 build/Debug/debug/_ext/100901378/WFConsoleMsgs.o
 .comment       0x00000000       0x52 build/Debug/debug/_ext/867694782/TFTPc.o
 .comment       0x00000000       0x52 build/Debug/debug/_ext/867694782/Announce.o
 .comment       0x00000000       0x52 build/Debug/debug/_ext/867694782/CAN2TCPBridge.o
 .comment       0x00000000       0x52 build/Debug/debug/_ext/867694782/FTP.o
 .comment       0x00000000       0x52 build/Debug/debug/_ext/867694782/ENC28J60.o
 .comment       0x00000000       0x52 build/Debug/debug/_ext/867694782/SPIRAM.o
 .comment       0x00000000       0x52 build/Debug/debug/_ext/867694782/SNMP.o
 .comment       0x00000000       0x52 build/Debug/debug/_ext/867694782/Hashes.o
 .comment       0x00000000       0x52 build/Debug/debug/_ext/867694782/LCDBlocking.o
 .comment       0x00000000       0x52 build/Debug/debug/_ext/867694782/StackTsk.o
 .comment       0x00000000       0x52 build/Debug/debug/_ext/867694782/ARP.o
 .comment       0x00000000       0x52 build/Debug/debug/_ext/867694782/HTTP.o
 .comment       0x00000000       0x52 build/Debug/debug/_ext/867694782/SNTP.o
 .comment       0x00000000       0x52 build/Debug/debug/_ext/867694782/RSA.o
 .comment       0x00000000       0x52 build/Debug/debug/_ext/867694782/UART.o
 .comment       0x00000000       0x52 build/Debug/debug/_ext/867694782/ZeroconfHelper.o
 .comment       0x00000000       0x52 build/Debug/debug/_ext/867694782/HTTP2.o
 .comment       0x00000000       0x52 build/Debug/debug/_ext/867694782/ZeroconfMulticastDNS.o
 .comment       0x00000000       0x52 build/Debug/debug/_ext/867694782/NBNS.o
 .comment       0x00000000       0x52 build/Debug/debug/_ext/867694782/ENCX24J600.o
 .comment       0x00000000       0x52 build/Debug/debug/_ext/867694782/BerkeleyAPI.o
 .comment       0x00000000       0x52 build/Debug/debug/_ext/867694782/TCPPerformanceTest.o
 .comment       0x00000000       0x52 build/Debug/debug/_ext/867694782/UART2TCPBridge.o
 .comment       0x00000000       0x52 build/Debug/debug/_ext/867694782/AutoIP.o
 .comment       0x00000000       0x52 build/Debug/debug/_ext/867694782/DHCPs.o
 .comment       0x00000000       0x52 build/Debug/debug/_ext/867694782/DHCP.o
 .comment       0x00000000       0x52 build/Debug/debug/_ext/867694782/Reboot.o
 .comment       0x00000000       0x52 build/Debug/debug/_ext/867694782/SPIEEPROM.o
 .comment       0x00000000       0x52 build/Debug/debug/_ext/867694782/SSL.o
 .comment       0x00000000       0x52 build/Debug/debug/_ext/867694782/Delay.o
 .comment       0x00000000       0x52 build/Debug/debug/_ext/867694782/SPIFlash.o
 .comment       0x00000000       0x52 build/Debug/debug/_ext/867694782/DNSs.o
 .comment       0x00000000       0x52 build/Debug/debug/_ext/867694782/BigInt.o
 .comment       0x00000000       0x52 build/Debug/debug/_ext/867694782/UDP.o
 .comment       0x00000000       0x52 build/Debug/debug/_ext/867694782/DNS.o
 .comment       0x00000000       0x52 build/Debug/debug/_ext/867694782/ICMP.o
 .comment       0x00000000       0x52 build/Debug/debug/_ext/867694782/ETHPIC32IntMac.o
 .comment       0x00000000       0x52 build/Debug/debug/_ext/867694782/ETH97J60.o
 .comment       0x00000000       0x52 build/Debug/debug/_ext/867694782/Helpers.o
 .comment       0x00000000       0x52 build/Debug/debug/_ext/867694782/ZeroconfLinkLocal.o
 .comment       0x00000000       0x52 build/Debug/debug/_ext/867694782/IP.o
 .comment       0x00000000       0x52 build/Debug/debug/_ext/867694782/TCP.o
 .comment       0x00000000       0x52 build/Debug/debug/_ext/867694782/ETHPIC32ExtPhyDP83848.o
 .comment       0x00000000       0x52 build/Debug/debug/_ext/867694782/SMTP.o
 .comment       0x00000000       0x52 build/Debug/debug/_ext/867694782/Tick.o
 .comment       0x00000000       0x52 build/Debug/debug/_ext/867694782/Telnet.o
 .comment       0x00000000       0x52 build/Debug/debug/_ext/867694782/ETHPIC32ExtPhy.o
 .comment       0x00000000       0x52 build/Debug/debug/_ext/867694782/Random.o
 .comment       0x00000000       0x52 build/Debug/debug/_ext/867694782/MPFS.o
 .comment       0x00000000       0x52 build/Debug/debug/_ext/867694782/MPFS2.o
 .comment       0x00000000       0x52 build/Debug/debug/_ext/867694782/DynDNS.o
 .comment       0x00000000       0x52 build/Debug/debug/_ext/867694782/UDPPerformanceTest.o
 .comment       0x00000000       0x52 build/Debug/debug/_ext/867694782/ARCFOUR.o
 .comment       0x00000000       0x52 build/Debug/debug/_ext/1472/i2c_support.o
 .comment       0x00000000       0x52 build/Debug/debug/_ext/1472/main.o
 .comment       0x00000000       0x52 build/Debug/debug/_ext/1472/MyTFTP.o
 .comment       0x00000000       0x52 build/Debug/debug/_ext/1472/Settings.o
 .comment       0x00000000       0x52 build/Debug/debug/_ext/1472/HodoCrate.o
 .comment       0x00000000       0x52 build/Debug/debug/_ext/1472/BerkeleyTCPServerDemo.o
 .comment       0x00000000       0x52 build/Debug/debug/_ext/1472/PingDemo.o
 .comment       0x00000000       0x52 /opt/microchip/mplabc32/v2.02/bin/../lib/gcc/pic32mx/4.5.1/libgcc.a(_udivdi3.o)
 .comment       0x00000000       0x52 /opt/microchip/mplabc32/v2.02/bin/../lib/gcc/pic32mx/4.5.1/libgcc.a(floatunsisf.o)
 .comment       0x00000000       0x52 /opt/microchip/mplabc32/v2.02/bin/../lib/gcc/pic32mx/4.5.1/../../../../pic32mx/lib/libdebug.a(db_utils.o)
 .comment       0x00000051       0x55 /opt/microchip/mplabc32/v2.02/bin/../lib/gcc/pic32mx/4.5.1/../../../../pic32mx/lib/libc.a(memcmp.o)
                                 0x56 (size before relaxing)
 .comment       0x000000a6       0x55 /opt/microchip/mplabc32/v2.02/bin/../lib/gcc/pic32mx/4.5.1/../../../../pic32mx/lib/libc.a(memset.o)
                                 0x56 (size before relaxing)
 .comment       0x000000fb       0x55 /opt/microchip/mplabc32/v2.02/bin/../lib/gcc/pic32mx/4.5.1/../../../../pic32mx/lib/libc.a(strcmp.o)
                                 0x56 (size before relaxing)
 .comment       0x00000150       0x55 /opt/microchip/mplabc32/v2.02/bin/../lib/gcc/pic32mx/4.5.1/../../../../pic32mx/lib/libc.a(strcpy.o)
                                 0x56 (size before relaxing)
 .comment       0x000001a5       0x55 /opt/microchip/mplabc32/v2.02/bin/../lib/gcc/pic32mx/4.5.1/../../../../pic32mx/lib/libc.a(strlen.o)
                                 0x56 (size before relaxing)
 .comment       0x00000000       0x52 /opt/microchip/mplabc32/v2.02/bin/../lib/gcc/pic32mx/4.5.1/../../../../pic32mx/lib/libc.a(atoi.o)
 .comment       0x00000000       0x52 /opt/microchip/mplabc32/v2.02/bin/../lib/gcc/pic32mx/4.5.1/../../../../pic32mx/lib/libc.a(c32_uart.o)
 .comment       0x000001fa       0x4e /opt/microchip/mplabc32/v2.02/bin/../lib/gcc/pic32mx/4.5.1/../../../../pic32mx/lib/libc.a(ctype.o)
                                 0xa0 (size before relaxing)
 .comment       0x00000000       0x52 /opt/microchip/mplabc32/v2.02/bin/../lib/gcc/pic32mx/4.5.1/../../../../pic32mx/lib/libc.a(malloc.o)
 .comment       0x00000000       0x52 /opt/microchip/mplabc32/v2.02/bin/../lib/gcc/pic32mx/4.5.1/../../../../pic32mx/lib/libc.a(puts.o)
 .comment       0x00000000       0x52 /opt/microchip/mplabc32/v2.02/bin/../lib/gcc/pic32mx/4.5.1/../../../../pic32mx/lib/libc.a(rand.o)
 .comment       0x00000000       0x52 /opt/microchip/mplabc32/v2.02/bin/../lib/gcc/pic32mx/4.5.1/../../../../pic32mx/lib/libc.a(strtok.o)
 .comment       0x00000000       0x52 /opt/microchip/mplabc32/v2.02/bin/../lib/gcc/pic32mx/4.5.1/../../../../pic32mx/lib/libc.a(printf_cdnopsuxX.eo)
 .comment       0x00000000       0x52 /opt/microchip/mplabc32/v2.02/bin/../lib/gcc/pic32mx/4.5.1/../../../../pic32mx/lib/libc.a(sprintf_cdfFnopsuxX.eo)
 .comment       0x00000248       0x4b /opt/microchip/mplabc32/v2.02/bin/../lib/gcc/pic32mx/4.5.1/../../../../pic32mx/lib/libc.a(sbrk.o)
                                 0x9d (size before relaxing)
 .comment       0x00000000       0x52 /opt/microchip/mplabc32/v2.02/bin/../lib/gcc/pic32mx/4.5.1/../../../../pic32mx/lib/libc.a(default-bootstrap-exception-handler.o)
 .comment       0x00000000       0x52 /opt/microchip/mplabc32/v2.02/bin/../lib/gcc/pic32mx/4.5.1/../../../../pic32mx/lib/libc.a(default-on-reset.o)
 .comment       0x00000000       0x52 /opt/microchip/mplabc32/v2.02/bin/../lib/gcc/pic32mx/4.5.1/../../../../pic32mx/lib/libc.a(default-on-bootstrap.o)
 .comment       0x00000000       0x52 /opt/microchip/mplabc32/v2.02/bin/../lib/gcc/pic32mx/4.5.1/../../../../pic32mx/lib/libc.a(_iob.o)
 .comment       0x00000000       0x52 /opt/microchip/mplabc32/v2.02/bin/../lib/gcc/pic32mx/4.5.1/../../../../pic32mx/lib/libc.a(_fputc_simple.o)
 .comment       0x00000000       0x52 /opt/microchip/mplabc32/v2.02/bin/../lib/gcc/pic32mx/4.5.1/../../../../pic32mx/lib/libc.a(errno.o)
 .comment       0x00000000       0x52 /opt/microchip/mplabc32/v2.02/bin/../lib/gcc/pic32mx/4.5.1/../../../../pic32mx/lib/libc.a(strcspn.o)
 .comment       0x00000000       0x52 /opt/microchip/mplabc32/v2.02/bin/../lib/gcc/pic32mx/4.5.1/../../../../pic32mx/lib/libc.a(strspn.o)
 .comment       0x00000000       0x52 /opt/microchip/mplabc32/v2.02/bin/../lib/gcc/pic32mx/4.5.1/../../../../pic32mx/lib/libc.a(doprnt_cdfFnopsuxX.eo)
 .comment       0x00000000       0x52 /opt/microchip/mplabc32/v2.02/bin/../lib/gcc/pic32mx/4.5.1/../../../../pic32mx/lib/libc.a(write.o)
 .comment       0x00000000       0x52 /opt/microchip/mplabc32/v2.02/bin/../lib/gcc/pic32mx/4.5.1/../../../../pic32mx/lib/libc.a(_flsbuf_simple.o)
 .comment       0x00000000       0x52 /opt/microchip/mplabc32/v2.02/bin/../lib/gcc/pic32mx/4.5.1/../../../../pic32mx/lib/libc.a(powers.o)
 .comment       0x00000000       0x52 /opt/microchip/mplabc32/v2.02/bin/../lib/gcc/pic32mx/4.5.1/../../../../pic32mx/lib/libc.a(strchr.o)
 .comment       0x00000293       0x9e /opt/microchip/mplabc32/v2.02/bin/../lib/gcc/pic32mx/4.5.1/../../../../pic32mx/lib/libe.a(_floatdisf.o)
                                 0xf0 (size before relaxing)
 .comment       0x00000331       0x51 /opt/microchip/mplabc32/v2.02/bin/../lib/gcc/pic32mx/4.5.1/../../../../pic32mx/lib/libmchp_peripheral.a(read_core_timer_lib.o)
                                 0x52 (size before relaxing)
 .comment       0x00000000       0x52 /opt/microchip/mplabc32/v2.02/bin/../lib/gcc/pic32mx/4.5.1/../../../../pic32mx/lib/libmchp_peripheral_32MX795F512L.a(eth_ack_packet_lib.o)
 .comment       0x00000000       0x52 /opt/microchip/mplabc32/v2.02/bin/../lib/gcc/pic32mx/4.5.1/../../../../pic32mx/lib/libmchp_peripheral_32MX795F512L.a(eth_descriptors_add_lib.o)
 .comment       0x00000000       0x52 /opt/microchip/mplabc32/v2.02/bin/../lib/gcc/pic32mx/4.5.1/../../../../pic32mx/lib/libmchp_peripheral_32MX795F512L.a(eth_init_lib.o)
 .comment       0x00000000       0x52 /opt/microchip/mplabc32/v2.02/bin/../lib/gcc/pic32mx/4.5.1/../../../../pic32mx/lib/libmchp_peripheral_32MX795F512L.a(eth_mac_open_lib.o)
 .comment       0x00000000       0x52 /opt/microchip/mplabc32/v2.02/bin/../lib/gcc/pic32mx/4.5.1/../../../../pic32mx/lib/libmchp_peripheral_32MX795F512L.a(eth_mac_set_address_max_lib.o)
 .comment       0x00000000       0x52 /opt/microchip/mplabc32/v2.02/bin/../lib/gcc/pic32mx/4.5.1/../../../../pic32mx/lib/libmchp_peripheral_32MX795F512L.a(eth_rx_buffers_append_lib.o)
 .comment       0x00000000       0x52 /opt/microchip/mplabc32/v2.02/bin/../lib/gcc/pic32mx/4.5.1/../../../../pic32mx/lib/libmchp_peripheral_32MX795F512L.a(eth_rx_filters_lib.o)
 .comment       0x00000000       0x52 /opt/microchip/mplabc32/v2.02/bin/../lib/gcc/pic32mx/4.5.1/../../../../pic32mx/lib/libmchp_peripheral_32MX795F512L.a(eth_rx_get_packet_lib.o)
 .comment       0x00000000       0x52 /opt/microchip/mplabc32/v2.02/bin/../lib/gcc/pic32mx/4.5.1/../../../../pic32mx/lib/libmchp_peripheral_32MX795F512L.a(eth_rx_set_buffer_size_lib.o)
 .comment       0x00000000       0x52 /opt/microchip/mplabc32/v2.02/bin/../lib/gcc/pic32mx/4.5.1/../../../../pic32mx/lib/libmchp_peripheral_32MX795F512L.a(eth_tx_packet_lib.o)
 .comment       0x00000000       0x52 /opt/microchip/mplabc32/v2.02/bin/../lib/gcc/pic32mx/4.5.1/../../../../pic32mx/lib/libmchp_peripheral_32MX795F512L.a(_eth_append_busy_list_lib.o)
 .comment       0x00000000       0x52 /opt/microchip/mplabc32/v2.02/bin/../lib/gcc/pic32mx/4.5.1/../../../../pic32mx/lib/libmchp_peripheral_32MX795F512L.a(eth_miim_access.o)
 .comment       0x00000000       0x52 /opt/microchip/mplabc32/v2.02/bin/../lib/gcc/pic32mx/4.5.1/../../../../pic32mx/lib/libmchp_peripheral_32MX795F512L.a(eth_miim_legacy.o)
 .comment       0x00000000       0x52 /opt/microchip/mplabc32/v2.02/bin/../lib/gcc/pic32mx/4.5.1/../../../../pic32mx/lib/libmchp_peripheral_32MX795F512L.a(soft_reset_lib.o)
 .comment       0x00000000       0x52 /opt/microchip/mplabc32/v2.02/bin/../lib/gcc/pic32mx/4.5.1/../../../../pic32mx/lib/libmchp_peripheral_32MX795F512L.a(pcache.o)
 .comment       0x00000000       0x52 /opt/microchip/mplabc32/v2.02/bin/../lib/gcc/pic32mx/4.5.1/../../../../pic32mx/lib/libmchp_peripheral_32MX795F512L.a(int_disable_interrupts_lib.o)
 .comment       0x00000000       0x52 /opt/microchip/mplabc32/v2.02/bin/../lib/gcc/pic32mx/4.5.1/../../../../pic32mx/lib/libmchp_peripheral_32MX795F512L.a(int_restore_interrupts_lib.o)
 .comment       0x00000000       0x52 /opt/microchip/mplabc32/v2.02/bin/../lib/gcc/pic32mx/4.5.1/../../../../pic32mx/lib/libmchp_peripheral_32MX795F512L.a(int_enable_mv_int_lib.o)
 .comment       0x00000000       0x52 /opt/microchip/mplabc32/v2.02/bin/../lib/gcc/pic32mx/4.5.1/../../../../pic32mx/lib/libmchp_peripheral_32MX795F512L.a(int_tbl_lib.o)
 .comment       0x00000000       0x52 /opt/microchip/mplabc32/v2.02/bin/../lib/gcc/pic32mx/4.5.1/../../../../pic32mx/lib/libmchp_peripheral_32MX795F512L.a(nvm_erase_page_lib.o)
 .comment       0x00000000       0x52 /opt/microchip/mplabc32/v2.02/bin/../lib/gcc/pic32mx/4.5.1/../../../../pic32mx/lib/libmchp_peripheral_32MX795F512L.a(nvm_operation_lib.o)
 .comment       0x00000000       0x52 /opt/microchip/mplabc32/v2.02/bin/../lib/gcc/pic32mx/4.5.1/../../../../pic32mx/lib/libmchp_peripheral_32MX795F512L.a(nvm_write_row_lib.o)
 .comment       0x00000000       0x52 /opt/microchip/mplabc32/v2.02/bin/../lib/gcc/pic32mx/4.5.1/../../../../pic32mx/lib/libmchp_peripheral_32MX795F512L.a(port_set_pins_digital_in_lib.o)
 .comment       0x00000000       0x52 /opt/microchip/mplabc32/v2.02/bin/../lib/gcc/pic32mx/4.5.1/../../../../pic32mx/lib/libmchp_peripheral_32MX795F512L.a(port_set_pins_digital_out_lib.o)
 .comment       0x00000000       0x52 /opt/microchip/mplabc32/v2.02/bin/../lib/gcc/pic32mx/4.5.1/../../../../pic32mx/lib/libmchp_peripheral_32MX795F512L.a(_ports_tbl_libp.o)
 .comment       0x00000000       0x52 /opt/microchip/mplabc32/v2.02/bin/../lib/gcc/pic32mx/4.5.1/../../../../pic32mx/lib/libmchp_peripheral_32MX795F512L.a(I2CAcknowledgeByte.o)
 .comment       0x00000000       0x52 /opt/microchip/mplabc32/v2.02/bin/../lib/gcc/pic32mx/4.5.1/../../../../pic32mx/lib/libmchp_peripheral_32MX795F512L.a(I2CBusIsIdle.o)
 .comment       0x00000000       0x52 /opt/microchip/mplabc32/v2.02/bin/../lib/gcc/pic32mx/4.5.1/../../../../pic32mx/lib/libmchp_peripheral_32MX795F512L.a(I2CByteWasAcknowledged.o)
 .comment       0x00000000       0x52 /opt/microchip/mplabc32/v2.02/bin/../lib/gcc/pic32mx/4.5.1/../../../../pic32mx/lib/libmchp_peripheral_32MX795F512L.a(I2CClearStatus.o)
 .comment       0x00000000       0x52 /opt/microchip/mplabc32/v2.02/bin/../lib/gcc/pic32mx/4.5.1/../../../../pic32mx/lib/libmchp_peripheral_32MX795F512L.a(I2CConfigure.o)
 .comment       0x00000000       0x52 /opt/microchip/mplabc32/v2.02/bin/../lib/gcc/pic32mx/4.5.1/../../../../pic32mx/lib/libmchp_peripheral_32MX795F512L.a(I2CEnable.o)
 .comment       0x00000000       0x52 /opt/microchip/mplabc32/v2.02/bin/../lib/gcc/pic32mx/4.5.1/../../../../pic32mx/lib/libmchp_peripheral_32MX795F512L.a(I2CGetByte.o)
 .comment       0x00000000       0x52 /opt/microchip/mplabc32/v2.02/bin/../lib/gcc/pic32mx/4.5.1/../../../../pic32mx/lib/libmchp_peripheral_32MX795F512L.a(I2CGetStatus.o)
 .comment       0x00000000       0x52 /opt/microchip/mplabc32/v2.02/bin/../lib/gcc/pic32mx/4.5.1/../../../../pic32mx/lib/libmchp_peripheral_32MX795F512L.a(I2CReceivedDataIsAvailable.o)
 .comment       0x00000000       0x52 /opt/microchip/mplabc32/v2.02/bin/../lib/gcc/pic32mx/4.5.1/../../../../pic32mx/lib/libmchp_peripheral_32MX795F512L.a(I2CReceiverEnable.o)
 .comment       0x00000000       0x52 /opt/microchip/mplabc32/v2.02/bin/../lib/gcc/pic32mx/4.5.1/../../../../pic32mx/lib/libmchp_peripheral_32MX795F512L.a(I2CRepeatStart.o)
 .comment       0x00000000       0x52 /opt/microchip/mplabc32/v2.02/bin/../lib/gcc/pic32mx/4.5.1/../../../../pic32mx/lib/libmchp_peripheral_32MX795F512L.a(I2CSendByte.o)
 .comment       0x00000000       0x52 /opt/microchip/mplabc32/v2.02/bin/../lib/gcc/pic32mx/4.5.1/../../../../pic32mx/lib/libmchp_peripheral_32MX795F512L.a(I2CSetFrequency.o)
 .comment       0x00000000       0x52 /opt/microchip/mplabc32/v2.02/bin/../lib/gcc/pic32mx/4.5.1/../../../../pic32mx/lib/libmchp_peripheral_32MX795F512L.a(I2CStart.o)
 .comment       0x00000000       0x52 /opt/microchip/mplabc32/v2.02/bin/../lib/gcc/pic32mx/4.5.1/../../../../pic32mx/lib/libmchp_peripheral_32MX795F512L.a(I2CStop.o)
 .comment       0x00000000       0x52 /opt/microchip/mplabc32/v2.02/bin/../lib/gcc/pic32mx/4.5.1/../../../../pic32mx/lib/libmchp_peripheral_32MX795F512L.a(I2CTransmissionHasCompleted.o)
 .comment       0x00000000       0x52 /opt/microchip/mplabc32/v2.02/bin/../lib/gcc/pic32mx/4.5.1/../../../../pic32mx/lib/libmchp_peripheral_32MX795F512L.a(I2CTransmitterIsReady.o)
 .comment       0x00000000       0x52 /opt/microchip/mplabc32/v2.02/bin/../lib/gcc/pic32mx/4.5.1/../../../../pic32mx/lib/libmchp_peripheral_32MX795F512L.a(int_enable_interrupts_lib.o)
 .comment       0x00000000       0x52 /opt/microchip/mplabc32/v2.02/bin/../lib/gcc/pic32mx/4.5.1/../../../../pic32mx/lib/libmchp_peripheral_32MX795F512L.a(I2CPrivate.o)
 .comment       0x00000000       0x52 /opt/microchip/mplabc32/v2.02/bin/../lib/gcc/pic32mx/4.5.1/../../../../pic32mx/lib/libc.a(calloc.o)
 .comment       0x00000000       0x52 /opt/microchip/mplabc32/v2.02/bin/../lib/gcc/pic32mx/4.5.1/libgcc.a(_floatundisf.o)
 .comment       0x00000000       0x52 /opt/microchip/mplabc32/v2.02/bin/../lib/gcc/pic32mx/4.5.1/libgcc.a(_umoddi3.o)

.debug
 *(.debug)

.line
 *(.line)

.debug_srcinfo
 *(.debug_srcinfo)

.debug_sfnames
 *(.debug_sfnames)

.debug_aranges  0x00000000     0x1a90
 *(.debug_aranges)
 .debug_aranges
                0x00000000       0x30 build/Debug/debug/_ext/100901378/WFScan.o
 .debug_aranges
                0x00000030       0x38 build/Debug/debug/_ext/100901378/WF_Spi.o
 .debug_aranges
                0x00000068       0x30 build/Debug/debug/_ext/100901378/WFEasyConfig.o
 .debug_aranges
                0x00000098       0x30 build/Debug/debug/_ext/100901378/WFConsole.o
 .debug_aranges
                0x000000c8       0x38 build/Debug/debug/_ext/100901378/WF_Eint.o
 .debug_aranges
                0x00000100       0x30 build/Debug/debug/_ext/100901378/WFConnectionManager.o
 .debug_aranges
                0x00000130       0x30 build/Debug/debug/_ext/100901378/WFPowerSave.o
 .debug_aranges
                0x00000160       0x30 build/Debug/debug/_ext/100901378/WFParamMsg.o
 .debug_aranges
                0x00000190       0x30 build/Debug/debug/_ext/100901378/WFConnectionProfile.o
 .debug_aranges
                0x000001c0       0x38 build/Debug/debug/_ext/100901378/WFDriverRaw.o
 .debug_aranges
                0x000001f8       0x30 build/Debug/debug/_ext/100901378/WFConsoleIwpriv.o
 .debug_aranges
                0x00000228       0x30 build/Debug/debug/_ext/100901378/WFTxPower.o
 .debug_aranges
                0x00000258       0x30 build/Debug/debug/_ext/100901378/WFInit.o
 .debug_aranges
                0x00000288       0x38 build/Debug/debug/_ext/100901378/WFDriverCom.o
 .debug_aranges
                0x000002c0       0x30 build/Debug/debug/_ext/100901378/WFConsoleMsgHandler.o
 .debug_aranges
                0x000002f0       0x30 build/Debug/debug/_ext/100901378/WFEventHandler.o
 .debug_aranges
                0x00000320       0x30 build/Debug/debug/_ext/100901378/WFConsoleIwconfig.o
 .debug_aranges
                0x00000350       0x30 build/Debug/debug/_ext/100901378/WFConsoleIfconfig.o
 .debug_aranges
                0x00000380       0x30 build/Debug/debug/_ext/100901378/WFConnectionAlgorithm.o
 .debug_aranges
                0x000003b0       0x38 build/Debug/debug/_ext/100901378/WFMac.o
 .debug_aranges
                0x000003e8       0x30 build/Debug/debug/_ext/100901378/WFDataTxRx.o
 .debug_aranges
                0x00000418       0x30 build/Debug/debug/_ext/100901378/WFMgmtMsg.o
 .debug_aranges
                0x00000448       0x30 build/Debug/debug/_ext/100901378/WFConsoleMsgs.o
 .debug_aranges
                0x00000478       0x38 build/Debug/debug/_ext/867694782/TFTPc.o
 .debug_aranges
                0x000004b0       0x38 build/Debug/debug/_ext/867694782/Announce.o
 .debug_aranges
                0x000004e8       0x30 build/Debug/debug/_ext/867694782/CAN2TCPBridge.o
 .debug_aranges
                0x00000518       0x30 build/Debug/debug/_ext/867694782/FTP.o
 .debug_aranges
                0x00000548       0x30 build/Debug/debug/_ext/867694782/ENC28J60.o
 .debug_aranges
                0x00000578       0x30 build/Debug/debug/_ext/867694782/SPIRAM.o
 .debug_aranges
                0x000005a8       0x30 build/Debug/debug/_ext/867694782/SNMP.o
 .debug_aranges
                0x000005d8       0x30 build/Debug/debug/_ext/867694782/Hashes.o
 .debug_aranges
                0x00000608       0x30 build/Debug/debug/_ext/867694782/LCDBlocking.o
 .debug_aranges
                0x00000638       0x38 build/Debug/debug/_ext/867694782/StackTsk.o
 .debug_aranges
                0x00000670       0x38 build/Debug/debug/_ext/867694782/ARP.o
 .debug_aranges
                0x000006a8       0x30 build/Debug/debug/_ext/867694782/HTTP.o
 .debug_aranges
                0x000006d8       0x30 build/Debug/debug/_ext/867694782/SNTP.o
 .debug_aranges
                0x00000708       0x30 build/Debug/debug/_ext/867694782/RSA.o
 .debug_aranges
                0x00000738       0x30 build/Debug/debug/_ext/867694782/UART.o
 .debug_aranges
                0x00000768       0x30 build/Debug/debug/_ext/867694782/ZeroconfHelper.o
 .debug_aranges
                0x00000798       0x30 build/Debug/debug/_ext/867694782/HTTP2.o
 .debug_aranges
                0x000007c8       0x30 build/Debug/debug/_ext/867694782/ZeroconfMulticastDNS.o
 .debug_aranges
                0x000007f8       0x30 build/Debug/debug/_ext/867694782/NBNS.o
 .debug_aranges
                0x00000828       0x30 build/Debug/debug/_ext/867694782/ENCX24J600.o
 .debug_aranges
                0x00000858       0x38 build/Debug/debug/_ext/867694782/BerkeleyAPI.o
 .debug_aranges
                0x00000890       0x30 build/Debug/debug/_ext/867694782/TCPPerformanceTest.o
 .debug_aranges
                0x000008c0       0x30 build/Debug/debug/_ext/867694782/UART2TCPBridge.o
 .debug_aranges
                0x000008f0       0x30 build/Debug/debug/_ext/867694782/AutoIP.o
 .debug_aranges
                0x00000920       0x30 build/Debug/debug/_ext/867694782/DHCPs.o
 .debug_aranges
                0x00000950       0x38 build/Debug/debug/_ext/867694782/DHCP.o
 .debug_aranges
                0x00000988       0x30 build/Debug/debug/_ext/867694782/Reboot.o
 .debug_aranges
                0x000009b8       0x30 build/Debug/debug/_ext/867694782/SPIEEPROM.o
 .debug_aranges
                0x000009e8       0x30 build/Debug/debug/_ext/867694782/SSL.o
 .debug_aranges
                0x00000a18       0x38 build/Debug/debug/_ext/867694782/Delay.o
 .debug_aranges
                0x00000a50       0x30 build/Debug/debug/_ext/867694782/SPIFlash.o
 .debug_aranges
                0x00000a80       0x30 build/Debug/debug/_ext/867694782/DNSs.o
 .debug_aranges
                0x00000ab0       0x30 build/Debug/debug/_ext/867694782/BigInt.o
 .debug_aranges
                0x00000ae0       0x38 build/Debug/debug/_ext/867694782/UDP.o
 .debug_aranges
                0x00000b18       0x30 build/Debug/debug/_ext/867694782/DNS.o
 .debug_aranges
                0x00000b48       0x38 build/Debug/debug/_ext/867694782/ICMP.o
 .debug_aranges
                0x00000b80       0x38 build/Debug/debug/_ext/867694782/ETHPIC32IntMac.o
 .debug_aranges
                0x00000bb8       0x30 build/Debug/debug/_ext/867694782/ETH97J60.o
 .debug_aranges
                0x00000be8       0x38 build/Debug/debug/_ext/867694782/Helpers.o
 .debug_aranges
                0x00000c20       0x30 build/Debug/debug/_ext/867694782/ZeroconfLinkLocal.o
 .debug_aranges
                0x00000c50       0x38 build/Debug/debug/_ext/867694782/IP.o
 .debug_aranges
                0x00000c88       0x38 build/Debug/debug/_ext/867694782/TCP.o
 .debug_aranges
                0x00000cc0       0x38 build/Debug/debug/_ext/867694782/ETHPIC32ExtPhyDP83848.o
 .debug_aranges
                0x00000cf8       0x30 build/Debug/debug/_ext/867694782/SMTP.o
 .debug_aranges
                0x00000d28       0x38 build/Debug/debug/_ext/867694782/Tick.o
 .debug_aranges
                0x00000d60       0x30 build/Debug/debug/_ext/867694782/Telnet.o
 .debug_aranges
                0x00000d90       0x38 build/Debug/debug/_ext/867694782/ETHPIC32ExtPhy.o
 .debug_aranges
                0x00000dc8       0x30 build/Debug/debug/_ext/867694782/Random.o
 .debug_aranges
                0x00000df8       0x30 build/Debug/debug/_ext/867694782/MPFS.o
 .debug_aranges
                0x00000e28       0x30 build/Debug/debug/_ext/867694782/MPFS2.o
 .debug_aranges
                0x00000e58       0x30 build/Debug/debug/_ext/867694782/DynDNS.o
 .debug_aranges
                0x00000e88       0x30 build/Debug/debug/_ext/867694782/UDPPerformanceTest.o
 .debug_aranges
                0x00000eb8       0x30 build/Debug/debug/_ext/867694782/ARCFOUR.o
 .debug_aranges
                0x00000ee8       0x38 build/Debug/debug/_ext/1472/i2c_support.o
 .debug_aranges
                0x00000f20       0x38 build/Debug/debug/_ext/1472/main.o
 .debug_aranges
                0x00000f58       0x38 build/Debug/debug/_ext/1472/MyTFTP.o
 .debug_aranges
                0x00000f90       0x38 build/Debug/debug/_ext/1472/Settings.o
 .debug_aranges
                0x00000fc8       0x38 build/Debug/debug/_ext/1472/HodoCrate.o
 .debug_aranges
                0x00001000       0x38 build/Debug/debug/_ext/1472/BerkeleyTCPServerDemo.o
 .debug_aranges
                0x00001038       0x38 build/Debug/debug/_ext/1472/PingDemo.o
 .debug_aranges
                0x00001070       0x20 /opt/microchip/mplabc32/v2.02/bin/../lib/gcc/pic32mx/4.5.1/libgcc.a(_udivdi3.o)
 .debug_aranges
                0x00001090       0x20 /opt/microchip/mplabc32/v2.02/bin/../lib/gcc/pic32mx/4.5.1/libgcc.a(floatunsisf.o)
 .debug_aranges
                0x000010b0       0x48 /opt/microchip/mplabc32/v2.02/bin/../lib/gcc/pic32mx/4.5.1/../../../../pic32mx/lib/libdebug.a(db_utils.o)
 .debug_aranges
                0x000010f8       0x20 /opt/microchip/mplabc32/v2.02/bin/../lib/gcc/pic32mx/4.5.1/../../../../pic32mx/lib/libc.a(atoi.o)
 .debug_aranges
                0x00001118       0x30 /opt/microchip/mplabc32/v2.02/bin/../lib/gcc/pic32mx/4.5.1/../../../../pic32mx/lib/libc.a(malloc.o)
 .debug_aranges
                0x00001148       0x28 /opt/microchip/mplabc32/v2.02/bin/../lib/gcc/pic32mx/4.5.1/../../../../pic32mx/lib/libc.a(puts.o)
 .debug_aranges
                0x00001170       0x28 /opt/microchip/mplabc32/v2.02/bin/../lib/gcc/pic32mx/4.5.1/../../../../pic32mx/lib/libc.a(rand.o)
 .debug_aranges
                0x00001198       0x20 /opt/microchip/mplabc32/v2.02/bin/../lib/gcc/pic32mx/4.5.1/../../../../pic32mx/lib/libc.a(strtok.o)
 .debug_aranges
                0x000011b8       0x20 /opt/microchip/mplabc32/v2.02/bin/../lib/gcc/pic32mx/4.5.1/../../../../pic32mx/lib/libc.a(printf_cdnopsuxX.eo)
 .debug_aranges
                0x000011d8       0x20 /opt/microchip/mplabc32/v2.02/bin/../lib/gcc/pic32mx/4.5.1/../../../../pic32mx/lib/libc.a(sprintf_cdfFnopsuxX.eo)
 .debug_aranges
                0x000011f8       0x40 /opt/microchip/mplabc32/v2.02/bin/../lib/gcc/pic32mx/4.5.1/../../../../pic32mx/lib/libc.a(sbrk.o)
 .debug_aranges
                0x00001238       0x20 /opt/microchip/mplabc32/v2.02/bin/../lib/gcc/pic32mx/4.5.1/../../../../pic32mx/lib/libc.a(default-bootstrap-exception-handler.o)
 .debug_aranges
                0x00001258       0x20 /opt/microchip/mplabc32/v2.02/bin/../lib/gcc/pic32mx/4.5.1/../../../../pic32mx/lib/libc.a(default-on-reset.o)
 .debug_aranges
                0x00001278       0x20 /opt/microchip/mplabc32/v2.02/bin/../lib/gcc/pic32mx/4.5.1/../../../../pic32mx/lib/libc.a(default-on-bootstrap.o)
 .debug_aranges
                0x00001298       0x20 /opt/microchip/mplabc32/v2.02/bin/../lib/gcc/pic32mx/4.5.1/../../../../pic32mx/lib/libc.a(_fputc_simple.o)
 .debug_aranges
                0x000012b8       0x20 /opt/microchip/mplabc32/v2.02/bin/../lib/gcc/pic32mx/4.5.1/../../../../pic32mx/lib/libc.a(strcspn.o)
 .debug_aranges
                0x000012d8       0x20 /opt/microchip/mplabc32/v2.02/bin/../lib/gcc/pic32mx/4.5.1/../../../../pic32mx/lib/libc.a(strspn.o)
 .debug_aranges
                0x000012f8       0x28 /opt/microchip/mplabc32/v2.02/bin/../lib/gcc/pic32mx/4.5.1/../../../../pic32mx/lib/libc.a(doprnt_cdfFnopsuxX.eo)
 .debug_aranges
                0x00001320       0x20 /opt/microchip/mplabc32/v2.02/bin/../lib/gcc/pic32mx/4.5.1/../../../../pic32mx/lib/libc.a(write.o)
 .debug_aranges
                0x00001340       0x20 /opt/microchip/mplabc32/v2.02/bin/../lib/gcc/pic32mx/4.5.1/../../../../pic32mx/lib/libc.a(_flsbuf_simple.o)
 .debug_aranges
                0x00001360       0x20 /opt/microchip/mplabc32/v2.02/bin/../lib/gcc/pic32mx/4.5.1/../../../../pic32mx/lib/libc.a(strchr.o)
 .debug_aranges
                0x00001380       0x20 /opt/microchip/mplabc32/v2.02/bin/../lib/gcc/pic32mx/4.5.1/../../../../pic32mx/lib/libe.a(_floatdisf.o)
 .debug_aranges
                0x000013a0       0x20 /opt/microchip/mplabc32/v2.02/bin/../lib/gcc/pic32mx/4.5.1/../../../../pic32mx/lib/libmchp_peripheral.a(read_core_timer_lib.o)
 .debug_aranges
                0x000013c0       0x48 /opt/microchip/mplabc32/v2.02/bin/../lib/gcc/pic32mx/4.5.1/../../../../pic32mx/lib/libmchp_peripheral_32MX795F512L.a(eth_ack_packet_lib.o)
 .debug_aranges
                0x00001408       0x28 /opt/microchip/mplabc32/v2.02/bin/../lib/gcc/pic32mx/4.5.1/../../../../pic32mx/lib/libmchp_peripheral_32MX795F512L.a(eth_descriptors_add_lib.o)
 .debug_aranges
                0x00001430       0x20 /opt/microchip/mplabc32/v2.02/bin/../lib/gcc/pic32mx/4.5.1/../../../../pic32mx/lib/libmchp_peripheral_32MX795F512L.a(eth_init_lib.o)
 .debug_aranges
                0x00001450       0x20 /opt/microchip/mplabc32/v2.02/bin/../lib/gcc/pic32mx/4.5.1/../../../../pic32mx/lib/libmchp_peripheral_32MX795F512L.a(eth_mac_open_lib.o)
 .debug_aranges
                0x00001470       0x30 /opt/microchip/mplabc32/v2.02/bin/../lib/gcc/pic32mx/4.5.1/../../../../pic32mx/lib/libmchp_peripheral_32MX795F512L.a(eth_mac_set_address_max_lib.o)
 .debug_aranges
                0x000014a0       0x20 /opt/microchip/mplabc32/v2.02/bin/../lib/gcc/pic32mx/4.5.1/../../../../pic32mx/lib/libmchp_peripheral_32MX795F512L.a(eth_rx_buffers_append_lib.o)
 .debug_aranges
                0x000014c0       0x48 /opt/microchip/mplabc32/v2.02/bin/../lib/gcc/pic32mx/4.5.1/../../../../pic32mx/lib/libmchp_peripheral_32MX795F512L.a(eth_rx_filters_lib.o)
 .debug_aranges
                0x00001508       0x28 /opt/microchip/mplabc32/v2.02/bin/../lib/gcc/pic32mx/4.5.1/../../../../pic32mx/lib/libmchp_peripheral_32MX795F512L.a(eth_rx_get_packet_lib.o)
 .debug_aranges
                0x00001530       0x20 /opt/microchip/mplabc32/v2.02/bin/../lib/gcc/pic32mx/4.5.1/../../../../pic32mx/lib/libmchp_peripheral_32MX795F512L.a(eth_rx_set_buffer_size_lib.o)
 .debug_aranges
                0x00001550       0x48 /opt/microchip/mplabc32/v2.02/bin/../lib/gcc/pic32mx/4.5.1/../../../../pic32mx/lib/libmchp_peripheral_32MX795F512L.a(eth_tx_packet_lib.o)
 .debug_aranges
                0x00001598       0x20 /opt/microchip/mplabc32/v2.02/bin/../lib/gcc/pic32mx/4.5.1/../../../../pic32mx/lib/libmchp_peripheral_32MX795F512L.a(_eth_append_busy_list_lib.o)
 .debug_aranges
                0x000015b8       0x48 /opt/microchip/mplabc32/v2.02/bin/../lib/gcc/pic32mx/4.5.1/../../../../pic32mx/lib/libmchp_peripheral_32MX795F512L.a(eth_miim_access.o)
 .debug_aranges
                0x00001600       0x48 /opt/microchip/mplabc32/v2.02/bin/../lib/gcc/pic32mx/4.5.1/../../../../pic32mx/lib/libmchp_peripheral_32MX795F512L.a(eth_miim_legacy.o)
 .debug_aranges
                0x00001648       0x20 /opt/microchip/mplabc32/v2.02/bin/../lib/gcc/pic32mx/4.5.1/../../../../pic32mx/lib/libmchp_peripheral_32MX795F512L.a(soft_reset_lib.o)
 .debug_aranges
                0x00001668       0x28 /opt/microchip/mplabc32/v2.02/bin/../lib/gcc/pic32mx/4.5.1/../../../../pic32mx/lib/libmchp_peripheral_32MX795F512L.a(pcache.o)
 .debug_aranges
                0x00001690       0x20 /opt/microchip/mplabc32/v2.02/bin/../lib/gcc/pic32mx/4.5.1/../../../../pic32mx/lib/libmchp_peripheral_32MX795F512L.a(int_disable_interrupts_lib.o)
 .debug_aranges
                0x000016b0       0x20 /opt/microchip/mplabc32/v2.02/bin/../lib/gcc/pic32mx/4.5.1/../../../../pic32mx/lib/libmchp_peripheral_32MX795F512L.a(int_restore_interrupts_lib.o)
 .debug_aranges
                0x000016d0       0x20 /opt/microchip/mplabc32/v2.02/bin/../lib/gcc/pic32mx/4.5.1/../../../../pic32mx/lib/libmchp_peripheral_32MX795F512L.a(int_enable_mv_int_lib.o)
 .debug_aranges
                0x000016f0       0x60 /opt/microchip/mplabc32/v2.02/bin/../lib/gcc/pic32mx/4.5.1/../../../../pic32mx/lib/libmchp_peripheral_32MX795F512L.a(int_tbl_lib.o)
 .debug_aranges
                0x00001750       0x20 /opt/microchip/mplabc32/v2.02/bin/../lib/gcc/pic32mx/4.5.1/../../../../pic32mx/lib/libmchp_peripheral_32MX795F512L.a(nvm_erase_page_lib.o)
 .debug_aranges
                0x00001770       0x20 /opt/microchip/mplabc32/v2.02/bin/../lib/gcc/pic32mx/4.5.1/../../../../pic32mx/lib/libmchp_peripheral_32MX795F512L.a(nvm_operation_lib.o)
 .debug_aranges
                0x00001790       0x20 /opt/microchip/mplabc32/v2.02/bin/../lib/gcc/pic32mx/4.5.1/../../../../pic32mx/lib/libmchp_peripheral_32MX795F512L.a(nvm_write_row_lib.o)
 .debug_aranges
                0x000017b0       0x20 /opt/microchip/mplabc32/v2.02/bin/../lib/gcc/pic32mx/4.5.1/../../../../pic32mx/lib/libmchp_peripheral_32MX795F512L.a(port_set_pins_digital_in_lib.o)
 .debug_aranges
                0x000017d0       0x20 /opt/microchip/mplabc32/v2.02/bin/../lib/gcc/pic32mx/4.5.1/../../../../pic32mx/lib/libmchp_peripheral_32MX795F512L.a(port_set_pins_digital_out_lib.o)
 .debug_aranges
                0x000017f0       0x20 /opt/microchip/mplabc32/v2.02/bin/../lib/gcc/pic32mx/4.5.1/../../../../pic32mx/lib/libmchp_peripheral_32MX795F512L.a(I2CAcknowledgeByte.o)
 .debug_aranges
                0x00001810       0x20 /opt/microchip/mplabc32/v2.02/bin/../lib/gcc/pic32mx/4.5.1/../../../../pic32mx/lib/libmchp_peripheral_32MX795F512L.a(I2CBusIsIdle.o)
 .debug_aranges
                0x00001830       0x20 /opt/microchip/mplabc32/v2.02/bin/../lib/gcc/pic32mx/4.5.1/../../../../pic32mx/lib/libmchp_peripheral_32MX795F512L.a(I2CByteWasAcknowledged.o)
 .debug_aranges
                0x00001850       0x20 /opt/microchip/mplabc32/v2.02/bin/../lib/gcc/pic32mx/4.5.1/../../../../pic32mx/lib/libmchp_peripheral_32MX795F512L.a(I2CClearStatus.o)
 .debug_aranges
                0x00001870       0x20 /opt/microchip/mplabc32/v2.02/bin/../lib/gcc/pic32mx/4.5.1/../../../../pic32mx/lib/libmchp_peripheral_32MX795F512L.a(I2CConfigure.o)
 .debug_aranges
                0x00001890       0x20 /opt/microchip/mplabc32/v2.02/bin/../lib/gcc/pic32mx/4.5.1/../../../../pic32mx/lib/libmchp_peripheral_32MX795F512L.a(I2CEnable.o)
 .debug_aranges
                0x000018b0       0x20 /opt/microchip/mplabc32/v2.02/bin/../lib/gcc/pic32mx/4.5.1/../../../../pic32mx/lib/libmchp_peripheral_32MX795F512L.a(I2CGetByte.o)
 .debug_aranges
                0x000018d0       0x20 /opt/microchip/mplabc32/v2.02/bin/../lib/gcc/pic32mx/4.5.1/../../../../pic32mx/lib/libmchp_peripheral_32MX795F512L.a(I2CGetStatus.o)
 .debug_aranges
                0x000018f0       0x20 /opt/microchip/mplabc32/v2.02/bin/../lib/gcc/pic32mx/4.5.1/../../../../pic32mx/lib/libmchp_peripheral_32MX795F512L.a(I2CReceivedDataIsAvailable.o)
 .debug_aranges
                0x00001910       0x20 /opt/microchip/mplabc32/v2.02/bin/../lib/gcc/pic32mx/4.5.1/../../../../pic32mx/lib/libmchp_peripheral_32MX795F512L.a(I2CReceiverEnable.o)
 .debug_aranges
                0x00001930       0x20 /opt/microchip/mplabc32/v2.02/bin/../lib/gcc/pic32mx/4.5.1/../../../../pic32mx/lib/libmchp_peripheral_32MX795F512L.a(I2CRepeatStart.o)
 .debug_aranges
                0x00001950       0x20 /opt/microchip/mplabc32/v2.02/bin/../lib/gcc/pic32mx/4.5.1/../../../../pic32mx/lib/libmchp_peripheral_32MX795F512L.a(I2CSendByte.o)
 .debug_aranges
                0x00001970       0x20 /opt/microchip/mplabc32/v2.02/bin/../lib/gcc/pic32mx/4.5.1/../../../../pic32mx/lib/libmchp_peripheral_32MX795F512L.a(I2CSetFrequency.o)
 .debug_aranges
                0x00001990       0x20 /opt/microchip/mplabc32/v2.02/bin/../lib/gcc/pic32mx/4.5.1/../../../../pic32mx/lib/libmchp_peripheral_32MX795F512L.a(I2CStart.o)
 .debug_aranges
                0x000019b0       0x20 /opt/microchip/mplabc32/v2.02/bin/../lib/gcc/pic32mx/4.5.1/../../../../pic32mx/lib/libmchp_peripheral_32MX795F512L.a(I2CStop.o)
 .debug_aranges
                0x000019d0       0x20 /opt/microchip/mplabc32/v2.02/bin/../lib/gcc/pic32mx/4.5.1/../../../../pic32mx/lib/libmchp_peripheral_32MX795F512L.a(I2CTransmissionHasCompleted.o)
 .debug_aranges
                0x000019f0       0x20 /opt/microchip/mplabc32/v2.02/bin/../lib/gcc/pic32mx/4.5.1/../../../../pic32mx/lib/libmchp_peripheral_32MX795F512L.a(I2CTransmitterIsReady.o)
 .debug_aranges
                0x00001a10       0x20 /opt/microchip/mplabc32/v2.02/bin/../lib/gcc/pic32mx/4.5.1/../../../../pic32mx/lib/libmchp_peripheral_32MX795F512L.a(int_enable_interrupts_lib.o)
 .debug_aranges
                0x00001a30       0x20 /opt/microchip/mplabc32/v2.02/bin/../lib/gcc/pic32mx/4.5.1/../../../../pic32mx/lib/libc.a(calloc.o)
 .debug_aranges
                0x00001a50       0x20 /opt/microchip/mplabc32/v2.02/bin/../lib/gcc/pic32mx/4.5.1/libgcc.a(_floatundisf.o)
 .debug_aranges
                0x00001a70       0x20 /opt/microchip/mplabc32/v2.02/bin/../lib/gcc/pic32mx/4.5.1/libgcc.a(_umoddi3.o)

.debug_pubnames
                0x00000000     0x3387
 *(.debug_pubnames)
 .debug_pubnames
                0x00000000       0x49 build/Debug/debug/_ext/100901378/WFScan.o
 .debug_pubnames
                0x00000049       0x60 build/Debug/debug/_ext/100901378/WF_Spi.o
 .debug_pubnames
                0x000000a9       0x49 build/Debug/debug/_ext/100901378/WFEasyConfig.o
 .debug_pubnames
                0x000000f2       0x49 build/Debug/debug/_ext/100901378/WFConsole.o
 .debug_pubnames
                0x0000013b       0x61 build/Debug/debug/_ext/100901378/WF_Eint.o
 .debug_pubnames
                0x0000019c       0x49 build/Debug/debug/_ext/100901378/WFConnectionManager.o
 .debug_pubnames
                0x000001e5       0x49 build/Debug/debug/_ext/100901378/WFPowerSave.o
 .debug_pubnames
                0x0000022e       0x49 build/Debug/debug/_ext/100901378/WFParamMsg.o
 .debug_pubnames
                0x00000277       0x49 build/Debug/debug/_ext/100901378/WFConnectionProfile.o
 .debug_pubnames
                0x000002c0       0x61 build/Debug/debug/_ext/100901378/WFDriverRaw.o
 .debug_pubnames
                0x00000321       0x49 build/Debug/debug/_ext/100901378/WFConsoleIwpriv.o
 .debug_pubnames
                0x0000036a       0x49 build/Debug/debug/_ext/100901378/WFTxPower.o
 .debug_pubnames
                0x000003b3       0x49 build/Debug/debug/_ext/100901378/WFInit.o
 .debug_pubnames
                0x000003fc       0x63 build/Debug/debug/_ext/100901378/WFDriverCom.o
 .debug_pubnames
                0x0000045f       0x49 build/Debug/debug/_ext/100901378/WFConsoleMsgHandler.o
 .debug_pubnames
                0x000004a8       0x49 build/Debug/debug/_ext/100901378/WFEventHandler.o
 .debug_pubnames
                0x000004f1       0x49 build/Debug/debug/_ext/100901378/WFConsoleIwconfig.o
 .debug_pubnames
                0x0000053a       0x49 build/Debug/debug/_ext/100901378/WFConsoleIfconfig.o
 .debug_pubnames
                0x00000583       0x49 build/Debug/debug/_ext/100901378/WFConnectionAlgorithm.o
 .debug_pubnames
                0x000005cc       0x5d build/Debug/debug/_ext/100901378/WFMac.o
 .debug_pubnames
                0x00000629       0x49 build/Debug/debug/_ext/100901378/WFDataTxRx.o
 .debug_pubnames
                0x00000672       0x49 build/Debug/debug/_ext/100901378/WFMgmtMsg.o
 .debug_pubnames
                0x000006bb       0x49 build/Debug/debug/_ext/100901378/WFConsoleMsgs.o
 .debug_pubnames
                0x00000704      0x111 build/Debug/debug/_ext/867694782/TFTPc.o
 .debug_pubnames
                0x00000815       0x6a build/Debug/debug/_ext/867694782/Announce.o
 .debug_pubnames
                0x0000087f       0x49 build/Debug/debug/_ext/867694782/CAN2TCPBridge.o
 .debug_pubnames
                0x000008c8       0x49 build/Debug/debug/_ext/867694782/FTP.o
 .debug_pubnames
                0x00000911       0x49 build/Debug/debug/_ext/867694782/ENC28J60.o
 .debug_pubnames
                0x0000095a       0x49 build/Debug/debug/_ext/867694782/SPIRAM.o
 .debug_pubnames
                0x000009a3       0x49 build/Debug/debug/_ext/867694782/SNMP.o
 .debug_pubnames
                0x000009ec       0x49 build/Debug/debug/_ext/867694782/Hashes.o
 .debug_pubnames
                0x00000a35       0x49 build/Debug/debug/_ext/867694782/LCDBlocking.o
 .debug_pubnames
                0x00000a7e       0x8a build/Debug/debug/_ext/867694782/StackTsk.o
 .debug_pubnames
                0x00000b08       0xa9 build/Debug/debug/_ext/867694782/ARP.o
 .debug_pubnames
                0x00000bb1       0x49 build/Debug/debug/_ext/867694782/HTTP.o
 .debug_pubnames
                0x00000bfa       0x49 build/Debug/debug/_ext/867694782/SNTP.o
 .debug_pubnames
                0x00000c43       0x49 build/Debug/debug/_ext/867694782/RSA.o
 .debug_pubnames
                0x00000c8c       0x49 build/Debug/debug/_ext/867694782/UART.o
 .debug_pubnames
                0x00000cd5       0x49 build/Debug/debug/_ext/867694782/ZeroconfHelper.o
 .debug_pubnames
                0x00000d1e       0x49 build/Debug/debug/_ext/867694782/HTTP2.o
 .debug_pubnames
                0x00000d67       0x49 build/Debug/debug/_ext/867694782/ZeroconfMulticastDNS.o
 .debug_pubnames
                0x00000db0       0x49 build/Debug/debug/_ext/867694782/NBNS.o
 .debug_pubnames
                0x00000df9       0x49 build/Debug/debug/_ext/867694782/ENCX24J600.o
 .debug_pubnames
                0x00000e42       0xe0 build/Debug/debug/_ext/867694782/BerkeleyAPI.o
 .debug_pubnames
                0x00000f22       0x49 build/Debug/debug/_ext/867694782/TCPPerformanceTest.o
 .debug_pubnames
                0x00000f6b       0x49 build/Debug/debug/_ext/867694782/UART2TCPBridge.o
 .debug_pubnames
                0x00000fb4       0x49 build/Debug/debug/_ext/867694782/AutoIP.o
 .debug_pubnames
                0x00000ffd       0x49 build/Debug/debug/_ext/867694782/DHCPs.o
 .debug_pubnames
                0x00001046       0xf0 build/Debug/debug/_ext/867694782/DHCP.o
 .debug_pubnames
                0x00001136       0x49 build/Debug/debug/_ext/867694782/Reboot.o
 .debug_pubnames
                0x0000117f       0x49 build/Debug/debug/_ext/867694782/SPIEEPROM.o
 .debug_pubnames
                0x000011c8       0x49 build/Debug/debug/_ext/867694782/SSL.o
 .debug_pubnames
                0x00001211       0x63 build/Debug/debug/_ext/867694782/Delay.o
 .debug_pubnames
                0x00001274       0x49 build/Debug/debug/_ext/867694782/SPIFlash.o
 .debug_pubnames
                0x000012bd       0x49 build/Debug/debug/_ext/867694782/DNSs.o
 .debug_pubnames
                0x00001306       0x49 build/Debug/debug/_ext/867694782/BigInt.o
 .debug_pubnames
                0x0000134f      0x17a build/Debug/debug/_ext/867694782/UDP.o
 .debug_pubnames
                0x000014c9       0x49 build/Debug/debug/_ext/867694782/DNS.o
 .debug_pubnames
                0x00001512       0x9f build/Debug/debug/_ext/867694782/ICMP.o
 .debug_pubnames
                0x000015b1      0x24a build/Debug/debug/_ext/867694782/ETHPIC32IntMac.o
 .debug_pubnames
                0x000017fb       0x49 build/Debug/debug/_ext/867694782/ETH97J60.o
 .debug_pubnames
                0x00001844      0x12f build/Debug/debug/_ext/867694782/Helpers.o
 .debug_pubnames
                0x00001973       0x49 build/Debug/debug/_ext/867694782/ZeroconfLinkLocal.o
 .debug_pubnames
                0x000019bc       0x7b build/Debug/debug/_ext/867694782/IP.o
 .debug_pubnames
                0x00001a37      0x1f1 build/Debug/debug/_ext/867694782/TCP.o
 .debug_pubnames
                0x00001c28       0xa2 build/Debug/debug/_ext/867694782/ETHPIC32ExtPhyDP83848.o
 .debug_pubnames
                0x00001cca       0x49 build/Debug/debug/_ext/867694782/SMTP.o
 .debug_pubnames
                0x00001d13       0xb5 build/Debug/debug/_ext/867694782/Tick.o
 .debug_pubnames
                0x00001dc8       0x49 build/Debug/debug/_ext/867694782/Telnet.o
 .debug_pubnames
                0x00001e11      0x12c build/Debug/debug/_ext/867694782/ETHPIC32ExtPhy.o
 .debug_pubnames
                0x00001f3d       0x49 build/Debug/debug/_ext/867694782/Random.o
 .debug_pubnames
                0x00001f86       0x49 build/Debug/debug/_ext/867694782/MPFS.o
 .debug_pubnames
                0x00001fcf       0x49 build/Debug/debug/_ext/867694782/MPFS2.o
 .debug_pubnames
                0x00002018       0x49 build/Debug/debug/_ext/867694782/DynDNS.o
 .debug_pubnames
                0x00002061       0x49 build/Debug/debug/_ext/867694782/UDPPerformanceTest.o
 .debug_pubnames
                0x000020aa       0x49 build/Debug/debug/_ext/867694782/ARCFOUR.o
 .debug_pubnames
                0x000020f3      0x113 build/Debug/debug/_ext/1472/i2c_support.o
 .debug_pubnames
                0x00002206       0xd6 build/Debug/debug/_ext/1472/main.o
 .debug_pubnames
                0x000022dc       0x69 build/Debug/debug/_ext/1472/MyTFTP.o
 .debug_pubnames
                0x00002345       0xc5 build/Debug/debug/_ext/1472/Settings.o
 .debug_pubnames
                0x0000240a      0x180 build/Debug/debug/_ext/1472/HodoCrate.o
 .debug_pubnames
                0x0000258a       0x63 build/Debug/debug/_ext/1472/BerkeleyTCPServerDemo.o
 .debug_pubnames
                0x000025ed       0x56 build/Debug/debug/_ext/1472/PingDemo.o
 .debug_pubnames
                0x00002643       0x20 /opt/microchip/mplabc32/v2.02/bin/../lib/gcc/pic32mx/4.5.1/libgcc.a(_udivdi3.o)
 .debug_pubnames
                0x00002663       0x24 /opt/microchip/mplabc32/v2.02/bin/../lib/gcc/pic32mx/4.5.1/libgcc.a(floatunsisf.o)
 .debug_pubnames
                0x00002687       0x69 /opt/microchip/mplabc32/v2.02/bin/../lib/gcc/pic32mx/4.5.1/../../../../pic32mx/lib/libdebug.a(db_utils.o)
 .debug_pubnames
                0x000026f0       0x1b /opt/microchip/mplabc32/v2.02/bin/../lib/gcc/pic32mx/4.5.1/../../../../pic32mx/lib/libc.a(atoi.o)
 .debug_pubnames
                0x0000270b       0x32 /opt/microchip/mplabc32/v2.02/bin/../lib/gcc/pic32mx/4.5.1/../../../../pic32mx/lib/libc.a(malloc.o)
 .debug_pubnames
                0x0000273d       0x25 /opt/microchip/mplabc32/v2.02/bin/../lib/gcc/pic32mx/4.5.1/../../../../pic32mx/lib/libc.a(puts.o)
 .debug_pubnames
                0x00002762       0x25 /opt/microchip/mplabc32/v2.02/bin/../lib/gcc/pic32mx/4.5.1/../../../../pic32mx/lib/libc.a(rand.o)
 .debug_pubnames
                0x00002787       0x1d /opt/microchip/mplabc32/v2.02/bin/../lib/gcc/pic32mx/4.5.1/../../../../pic32mx/lib/libc.a(strtok.o)
 .debug_pubnames
                0x000027a4       0x28 /opt/microchip/mplabc32/v2.02/bin/../lib/gcc/pic32mx/4.5.1/../../../../pic32mx/lib/libc.a(printf_cdnopsuxX.eo)
 .debug_pubnames
                0x000027cc       0x2b /opt/microchip/mplabc32/v2.02/bin/../lib/gcc/pic32mx/4.5.1/../../../../pic32mx/lib/libc.a(sprintf_cdfFnopsuxX.eo)
 .debug_pubnames
                0x000027f7       0x5c /opt/microchip/mplabc32/v2.02/bin/../lib/gcc/pic32mx/4.5.1/../../../../pic32mx/lib/libc.a(sbrk.o)
 .debug_pubnames
                0x00002853       0x33 /opt/microchip/mplabc32/v2.02/bin/../lib/gcc/pic32mx/4.5.1/../../../../pic32mx/lib/libc.a(default-bootstrap-exception-handler.o)
 .debug_pubnames
                0x00002886       0x20 /opt/microchip/mplabc32/v2.02/bin/../lib/gcc/pic32mx/4.5.1/../../../../pic32mx/lib/libc.a(default-on-reset.o)
 .debug_pubnames
                0x000028a6       0x24 /opt/microchip/mplabc32/v2.02/bin/../lib/gcc/pic32mx/4.5.1/../../../../pic32mx/lib/libc.a(default-on-bootstrap.o)
 .debug_pubnames
                0x000028ca       0x1c /opt/microchip/mplabc32/v2.02/bin/../lib/gcc/pic32mx/4.5.1/../../../../pic32mx/lib/libc.a(_fputc_simple.o)
 .debug_pubnames
                0x000028e6       0x1e /opt/microchip/mplabc32/v2.02/bin/../lib/gcc/pic32mx/4.5.1/../../../../pic32mx/lib/libc.a(strcspn.o)
 .debug_pubnames
                0x00002904       0x1d /opt/microchip/mplabc32/v2.02/bin/../lib/gcc/pic32mx/4.5.1/../../../../pic32mx/lib/libc.a(strspn.o)
 .debug_pubnames
                0x00002921       0x2c /opt/microchip/mplabc32/v2.02/bin/../lib/gcc/pic32mx/4.5.1/../../../../pic32mx/lib/libc.a(doprnt_cdfFnopsuxX.eo)
 .debug_pubnames
                0x0000294d       0x1c /opt/microchip/mplabc32/v2.02/bin/../lib/gcc/pic32mx/4.5.1/../../../../pic32mx/lib/libc.a(write.o)
 .debug_pubnames
                0x00002969       0x1e /opt/microchip/mplabc32/v2.02/bin/../lib/gcc/pic32mx/4.5.1/../../../../pic32mx/lib/libc.a(_flsbuf_simple.o)
 .debug_pubnames
                0x00002987       0x1d /opt/microchip/mplabc32/v2.02/bin/../lib/gcc/pic32mx/4.5.1/../../../../pic32mx/lib/libc.a(strchr.o)
 .debug_pubnames
                0x000029a4       0x22 /opt/microchip/mplabc32/v2.02/bin/../lib/gcc/pic32mx/4.5.1/../../../../pic32mx/lib/libe.a(_floatdisf.o)
 .debug_pubnames
                0x000029c6       0x24 /opt/microchip/mplabc32/v2.02/bin/../lib/gcc/pic32mx/4.5.1/../../../../pic32mx/lib/libmchp_peripheral.a(read_core_timer_lib.o)
 .debug_pubnames
                0x000029ea       0x80 /opt/microchip/mplabc32/v2.02/bin/../lib/gcc/pic32mx/4.5.1/../../../../pic32mx/lib/libmchp_peripheral_32MX795F512L.a(eth_ack_packet_lib.o)
 .debug_pubnames
                0x00002a6a       0x42 /opt/microchip/mplabc32/v2.02/bin/../lib/gcc/pic32mx/4.5.1/../../../../pic32mx/lib/libmchp_peripheral_32MX795F512L.a(eth_descriptors_add_lib.o)
 .debug_pubnames
                0x00002aac       0x1e /opt/microchip/mplabc32/v2.02/bin/../lib/gcc/pic32mx/4.5.1/../../../../pic32mx/lib/libmchp_peripheral_32MX795F512L.a(eth_init_lib.o)
 .debug_pubnames
                0x00002aca       0x21 /opt/microchip/mplabc32/v2.02/bin/../lib/gcc/pic32mx/4.5.1/../../../../pic32mx/lib/libmchp_peripheral_32MX795F512L.a(eth_mac_open_lib.o)
 .debug_pubnames
                0x00002aeb       0x52 /opt/microchip/mplabc32/v2.02/bin/../lib/gcc/pic32mx/4.5.1/../../../../pic32mx/lib/libmchp_peripheral_32MX795F512L.a(eth_mac_set_address_max_lib.o)
 .debug_pubnames
                0x00002b3d       0x29 /opt/microchip/mplabc32/v2.02/bin/../lib/gcc/pic32mx/4.5.1/../../../../pic32mx/lib/libmchp_peripheral_32MX795F512L.a(eth_rx_buffers_append_lib.o)
 .debug_pubnames
                0x00002b66       0x92 /opt/microchip/mplabc32/v2.02/bin/../lib/gcc/pic32mx/4.5.1/../../../../pic32mx/lib/libmchp_peripheral_32MX795F512L.a(eth_rx_filters_lib.o)
 .debug_pubnames
                0x00002bf8       0x38 /opt/microchip/mplabc32/v2.02/bin/../lib/gcc/pic32mx/4.5.1/../../../../pic32mx/lib/libmchp_peripheral_32MX795F512L.a(eth_rx_get_packet_lib.o)
 .debug_pubnames
                0x00002c30       0x29 /opt/microchip/mplabc32/v2.02/bin/../lib/gcc/pic32mx/4.5.1/../../../../pic32mx/lib/libmchp_peripheral_32MX795F512L.a(eth_rx_set_buffer_size_lib.o)
 .debug_pubnames
                0x00002c59       0x66 /opt/microchip/mplabc32/v2.02/bin/../lib/gcc/pic32mx/4.5.1/../../../../pic32mx/lib/libmchp_peripheral_32MX795F512L.a(eth_tx_packet_lib.o)
 .debug_pubnames
                0x00002cbf       0x29 /opt/microchip/mplabc32/v2.02/bin/../lib/gcc/pic32mx/4.5.1/../../../../pic32mx/lib/libmchp_peripheral_32MX795F512L.a(_eth_append_busy_list_lib.o)
 .debug_pubnames
                0x00002ce8       0x90 /opt/microchip/mplabc32/v2.02/bin/../lib/gcc/pic32mx/4.5.1/../../../../pic32mx/lib/libmchp_peripheral_32MX795F512L.a(eth_miim_access.o)
 .debug_pubnames
                0x00002d78       0x8d /opt/microchip/mplabc32/v2.02/bin/../lib/gcc/pic32mx/4.5.1/../../../../pic32mx/lib/libmchp_peripheral_32MX795F512L.a(eth_miim_legacy.o)
 .debug_pubnames
                0x00002e05       0x20 /opt/microchip/mplabc32/v2.02/bin/../lib/gcc/pic32mx/4.5.1/../../../../pic32mx/lib/libmchp_peripheral_32MX795F512L.a(soft_reset_lib.o)
 .debug_pubnames
                0x00002e25       0x3b /opt/microchip/mplabc32/v2.02/bin/../lib/gcc/pic32mx/4.5.1/../../../../pic32mx/lib/libmchp_peripheral_32MX795F512L.a(pcache.o)
 .debug_pubnames
                0x00002e60       0x2b /opt/microchip/mplabc32/v2.02/bin/../lib/gcc/pic32mx/4.5.1/../../../../pic32mx/lib/libmchp_peripheral_32MX795F512L.a(int_disable_interrupts_lib.o)
 .debug_pubnames
                0x00002e8b       0x2b /opt/microchip/mplabc32/v2.02/bin/../lib/gcc/pic32mx/4.5.1/../../../../pic32mx/lib/libmchp_peripheral_32MX795F512L.a(int_restore_interrupts_lib.o)
 .debug_pubnames
                0x00002eb6       0x36 /opt/microchip/mplabc32/v2.02/bin/../lib/gcc/pic32mx/4.5.1/../../../../pic32mx/lib/libmchp_peripheral_32MX795F512L.a(int_enable_mv_int_lib.o)
 .debug_pubnames
                0x00002eec       0xca /opt/microchip/mplabc32/v2.02/bin/../lib/gcc/pic32mx/4.5.1/../../../../pic32mx/lib/libmchp_peripheral_32MX795F512L.a(int_tbl_lib.o)
 .debug_pubnames
                0x00002fb6       0x23 /opt/microchip/mplabc32/v2.02/bin/../lib/gcc/pic32mx/4.5.1/../../../../pic32mx/lib/libmchp_peripheral_32MX795F512L.a(nvm_erase_page_lib.o)
 .debug_pubnames
                0x00002fd9       0x24 /opt/microchip/mplabc32/v2.02/bin/../lib/gcc/pic32mx/4.5.1/../../../../pic32mx/lib/libmchp_peripheral_32MX795F512L.a(nvm_operation_lib.o)
 .debug_pubnames
                0x00002ffd       0x22 /opt/microchip/mplabc32/v2.02/bin/../lib/gcc/pic32mx/4.5.1/../../../../pic32mx/lib/libmchp_peripheral_32MX795F512L.a(nvm_write_row_lib.o)
 .debug_pubnames
                0x0000301f       0x2b /opt/microchip/mplabc32/v2.02/bin/../lib/gcc/pic32mx/4.5.1/../../../../pic32mx/lib/libmchp_peripheral_32MX795F512L.a(port_set_pins_digital_in_lib.o)
 .debug_pubnames
                0x0000304a       0x2c /opt/microchip/mplabc32/v2.02/bin/../lib/gcc/pic32mx/4.5.1/../../../../pic32mx/lib/libmchp_peripheral_32MX795F512L.a(port_set_pins_digital_out_lib.o)
 .debug_pubnames
                0x00003076       0x29 /opt/microchip/mplabc32/v2.02/bin/../lib/gcc/pic32mx/4.5.1/../../../../pic32mx/lib/libmchp_peripheral_32MX795F512L.a(I2CAcknowledgeByte.o)
 .debug_pubnames
                0x0000309f       0x23 /opt/microchip/mplabc32/v2.02/bin/../lib/gcc/pic32mx/4.5.1/../../../../pic32mx/lib/libmchp_peripheral_32MX795F512L.a(I2CBusIsIdle.o)
 .debug_pubnames
                0x000030c2       0x2d /opt/microchip/mplabc32/v2.02/bin/../lib/gcc/pic32mx/4.5.1/../../../../pic32mx/lib/libmchp_peripheral_32MX795F512L.a(I2CByteWasAcknowledged.o)
 .debug_pubnames
                0x000030ef       0x25 /opt/microchip/mplabc32/v2.02/bin/../lib/gcc/pic32mx/4.5.1/../../../../pic32mx/lib/libmchp_peripheral_32MX795F512L.a(I2CClearStatus.o)
 .debug_pubnames
                0x00003114       0x23 /opt/microchip/mplabc32/v2.02/bin/../lib/gcc/pic32mx/4.5.1/../../../../pic32mx/lib/libmchp_peripheral_32MX795F512L.a(I2CConfigure.o)
 .debug_pubnames
                0x00003137       0x20 /opt/microchip/mplabc32/v2.02/bin/../lib/gcc/pic32mx/4.5.1/../../../../pic32mx/lib/libmchp_peripheral_32MX795F512L.a(I2CEnable.o)
 .debug_pubnames
                0x00003157       0x21 /opt/microchip/mplabc32/v2.02/bin/../lib/gcc/pic32mx/4.5.1/../../../../pic32mx/lib/libmchp_peripheral_32MX795F512L.a(I2CGetByte.o)
 .debug_pubnames
                0x00003178       0x23 /opt/microchip/mplabc32/v2.02/bin/../lib/gcc/pic32mx/4.5.1/../../../../pic32mx/lib/libmchp_peripheral_32MX795F512L.a(I2CGetStatus.o)
 .debug_pubnames
                0x0000319b       0x31 /opt/microchip/mplabc32/v2.02/bin/../lib/gcc/pic32mx/4.5.1/../../../../pic32mx/lib/libmchp_peripheral_32MX795F512L.a(I2CReceivedDataIsAvailable.o)
 .debug_pubnames
                0x000031cc       0x28 /opt/microchip/mplabc32/v2.02/bin/../lib/gcc/pic32mx/4.5.1/../../../../pic32mx/lib/libmchp_peripheral_32MX795F512L.a(I2CReceiverEnable.o)
 .debug_pubnames
                0x000031f4       0x25 /opt/microchip/mplabc32/v2.02/bin/../lib/gcc/pic32mx/4.5.1/../../../../pic32mx/lib/libmchp_peripheral_32MX795F512L.a(I2CRepeatStart.o)
 .debug_pubnames
                0x00003219       0x22 /opt/microchip/mplabc32/v2.02/bin/../lib/gcc/pic32mx/4.5.1/../../../../pic32mx/lib/libmchp_peripheral_32MX795F512L.a(I2CSendByte.o)
 .debug_pubnames
                0x0000323b       0x26 /opt/microchip/mplabc32/v2.02/bin/../lib/gcc/pic32mx/4.5.1/../../../../pic32mx/lib/libmchp_peripheral_32MX795F512L.a(I2CSetFrequency.o)
 .debug_pubnames
                0x00003261       0x1f /opt/microchip/mplabc32/v2.02/bin/../lib/gcc/pic32mx/4.5.1/../../../../pic32mx/lib/libmchp_peripheral_32MX795F512L.a(I2CStart.o)
 .debug_pubnames
                0x00003280       0x1e /opt/microchip/mplabc32/v2.02/bin/../lib/gcc/pic32mx/4.5.1/../../../../pic32mx/lib/libmchp_peripheral_32MX795F512L.a(I2CStop.o)
 .debug_pubnames
                0x0000329e       0x32 /opt/microchip/mplabc32/v2.02/bin/../lib/gcc/pic32mx/4.5.1/../../../../pic32mx/lib/libmchp_peripheral_32MX795F512L.a(I2CTransmissionHasCompleted.o)
 .debug_pubnames
                0x000032d0       0x2c /opt/microchip/mplabc32/v2.02/bin/../lib/gcc/pic32mx/4.5.1/../../../../pic32mx/lib/libmchp_peripheral_32MX795F512L.a(I2CTransmitterIsReady.o)
 .debug_pubnames
                0x000032fc       0x2a /opt/microchip/mplabc32/v2.02/bin/../lib/gcc/pic32mx/4.5.1/../../../../pic32mx/lib/libmchp_peripheral_32MX795F512L.a(int_enable_interrupts_lib.o)
 .debug_pubnames
                0x00003326       0x1d /opt/microchip/mplabc32/v2.02/bin/../lib/gcc/pic32mx/4.5.1/../../../../pic32mx/lib/libc.a(calloc.o)
 .debug_pubnames
                0x00003343       0x24 /opt/microchip/mplabc32/v2.02/bin/../lib/gcc/pic32mx/4.5.1/libgcc.a(_floatundisf.o)
 .debug_pubnames
                0x00003367       0x20 /opt/microchip/mplabc32/v2.02/bin/../lib/gcc/pic32mx/4.5.1/libgcc.a(_umoddi3.o)

.debug_info     0x00000000    0x75338
 *(.debug_info .gnu.linkonce.wi.*)
 .debug_info    0x00000000     0x1233 build/Debug/debug/_ext/100901378/WFScan.o
 .debug_info    0x00001233     0x1258 build/Debug/debug/_ext/100901378/WF_Spi.o
 .debug_info    0x0000248b     0x1239 build/Debug/debug/_ext/100901378/WFEasyConfig.o
 .debug_info    0x000036c4     0x1236 build/Debug/debug/_ext/100901378/WFConsole.o
 .debug_info    0x000048fa     0x125a build/Debug/debug/_ext/100901378/WF_Eint.o
 .debug_info    0x00005b54     0x1240 build/Debug/debug/_ext/100901378/WFConnectionManager.o
 .debug_info    0x00006d94     0x1238 build/Debug/debug/_ext/100901378/WFPowerSave.o
 .debug_info    0x00007fcc     0x1237 build/Debug/debug/_ext/100901378/WFParamMsg.o
 .debug_info    0x00009203     0x1240 build/Debug/debug/_ext/100901378/WFConnectionProfile.o
 .debug_info    0x0000a443     0x125e build/Debug/debug/_ext/100901378/WFDriverRaw.o
 .debug_info    0x0000b6a1     0x123c build/Debug/debug/_ext/100901378/WFConsoleIwpriv.o
 .debug_info    0x0000c8dd     0x1236 build/Debug/debug/_ext/100901378/WFTxPower.o
 .debug_info    0x0000db13     0x1233 build/Debug/debug/_ext/100901378/WFInit.o
 .debug_info    0x0000ed46     0x1260 build/Debug/debug/_ext/100901378/WFDriverCom.o
 .debug_info    0x0000ffa6     0x1240 build/Debug/debug/_ext/100901378/WFConsoleMsgHandler.o
 .debug_info    0x000111e6     0x123b build/Debug/debug/_ext/100901378/WFEventHandler.o
 .debug_info    0x00012421     0x123e build/Debug/debug/_ext/100901378/WFConsoleIwconfig.o
 .debug_info    0x0001365f     0x123e build/Debug/debug/_ext/100901378/WFConsoleIfconfig.o
 .debug_info    0x0001489d     0x1242 build/Debug/debug/_ext/100901378/WFConnectionAlgorithm.o
 .debug_info    0x00015adf     0x1254 build/Debug/debug/_ext/100901378/WFMac.o
 .debug_info    0x00016d33     0x1237 build/Debug/debug/_ext/100901378/WFDataTxRx.o
 .debug_info    0x00017f6a     0x1236 build/Debug/debug/_ext/100901378/WFMgmtMsg.o
 .debug_info    0x000191a0     0x123a build/Debug/debug/_ext/100901378/WFConsoleMsgs.o
 .debug_info    0x0001a3da     0x1f42 build/Debug/debug/_ext/867694782/TFTPc.o
 .debug_info    0x0001c31c     0x1af5 build/Debug/debug/_ext/867694782/Announce.o
 .debug_info    0x0001de11     0x1235 build/Debug/debug/_ext/867694782/CAN2TCPBridge.o
 .debug_info    0x0001f046     0x122b build/Debug/debug/_ext/867694782/FTP.o
 .debug_info    0x00020271     0x1230 build/Debug/debug/_ext/867694782/ENC28J60.o
 .debug_info    0x000214a1     0x122e build/Debug/debug/_ext/867694782/SPIRAM.o
 .debug_info    0x000226cf     0x122c build/Debug/debug/_ext/867694782/SNMP.o
 .debug_info    0x000238fb     0x122e build/Debug/debug/_ext/867694782/Hashes.o
 .debug_info    0x00024b29     0x1233 build/Debug/debug/_ext/867694782/LCDBlocking.o
 .debug_info    0x00025d5c     0x1af6 build/Debug/debug/_ext/867694782/StackTsk.o
 .debug_info    0x00027852     0x1c71 build/Debug/debug/_ext/867694782/ARP.o
 .debug_info    0x000294c3     0x122c build/Debug/debug/_ext/867694782/HTTP.o
 .debug_info    0x0002a6ef     0x122c build/Debug/debug/_ext/867694782/SNTP.o
 .debug_info    0x0002b91b     0x122b build/Debug/debug/_ext/867694782/RSA.o
 .debug_info    0x0002cb46     0x122c build/Debug/debug/_ext/867694782/UART.o
 .debug_info    0x0002dd72     0x1236 build/Debug/debug/_ext/867694782/ZeroconfHelper.o
 .debug_info    0x0002efa8     0x122d build/Debug/debug/_ext/867694782/HTTP2.o
 .debug_info    0x000301d5     0x123c build/Debug/debug/_ext/867694782/ZeroconfMulticastDNS.o
 .debug_info    0x00031411     0x122c build/Debug/debug/_ext/867694782/NBNS.o
 .debug_info    0x0003263d     0x1232 build/Debug/debug/_ext/867694782/ENCX24J600.o
 .debug_info    0x0003386f     0x241f build/Debug/debug/_ext/867694782/BerkeleyAPI.o
 .debug_info    0x00035c8e     0x123a build/Debug/debug/_ext/867694782/TCPPerformanceTest.o
 .debug_info    0x00036ec8     0x1236 build/Debug/debug/_ext/867694782/UART2TCPBridge.o
 .debug_info    0x000380fe     0x122e build/Debug/debug/_ext/867694782/AutoIP.o
 .debug_info    0x0003932c     0x122d build/Debug/debug/_ext/867694782/DHCPs.o
 .debug_info    0x0003a559     0x2085 build/Debug/debug/_ext/867694782/DHCP.o
 .debug_info    0x0003c5de     0x122e build/Debug/debug/_ext/867694782/Reboot.o
 .debug_info    0x0003d80c     0x1231 build/Debug/debug/_ext/867694782/SPIEEPROM.o
 .debug_info    0x0003ea3d     0x122b build/Debug/debug/_ext/867694782/SSL.o
 .debug_info    0x0003fc68     0x12c6 build/Debug/debug/_ext/867694782/Delay.o
 .debug_info    0x00040f2e     0x1230 build/Debug/debug/_ext/867694782/SPIFlash.o
 .debug_info    0x0004215e     0x122c build/Debug/debug/_ext/867694782/DNSs.o
 .debug_info    0x0004338a     0x122e build/Debug/debug/_ext/867694782/BigInt.o
 .debug_info    0x000445b8     0x211c build/Debug/debug/_ext/867694782/UDP.o
 .debug_info    0x000466d4     0x122b build/Debug/debug/_ext/867694782/DNS.o
 .debug_info    0x000478ff     0x1b89 build/Debug/debug/_ext/867694782/ICMP.o
 .debug_info    0x00049488     0x2d73 build/Debug/debug/_ext/867694782/ETHPIC32IntMac.o
 .debug_info    0x0004c1fb     0x1230 build/Debug/debug/_ext/867694782/ETH97J60.o
 .debug_info    0x0004d42b     0x2476 build/Debug/debug/_ext/867694782/Helpers.o
 .debug_info    0x0004f8a1     0x1239 build/Debug/debug/_ext/867694782/ZeroconfLinkLocal.o
 .debug_info    0x00050ada     0x1c02 build/Debug/debug/_ext/867694782/IP.o
 .debug_info    0x000526dc     0x32d4 build/Debug/debug/_ext/867694782/TCP.o
 .debug_info    0x000559b0     0x1779 build/Debug/debug/_ext/867694782/ETHPIC32ExtPhyDP83848.o
 .debug_info    0x00057129     0x122c build/Debug/debug/_ext/867694782/SMTP.o
 .debug_info    0x00058355     0x1bc4 build/Debug/debug/_ext/867694782/Tick.o
 .debug_info    0x00059f19     0x122e build/Debug/debug/_ext/867694782/Telnet.o
 .debug_info    0x0005b147     0x246e build/Debug/debug/_ext/867694782/ETHPIC32ExtPhy.o
 .debug_info    0x0005d5b5     0x122e build/Debug/debug/_ext/867694782/Random.o
 .debug_info    0x0005e7e3     0x122c build/Debug/debug/_ext/867694782/MPFS.o
 .debug_info    0x0005fa0f     0x122d build/Debug/debug/_ext/867694782/MPFS2.o
 .debug_info    0x00060c3c     0x122e build/Debug/debug/_ext/867694782/DynDNS.o
 .debug_info    0x00061e6a     0x123a build/Debug/debug/_ext/867694782/UDPPerformanceTest.o
 .debug_info    0x000630a4     0x122f build/Debug/debug/_ext/867694782/ARCFOUR.o
 .debug_info    0x000642d3     0x1750 build/Debug/debug/_ext/1472/i2c_support.o
 .debug_info    0x00065a23     0x2bf7 build/Debug/debug/_ext/1472/main.o
 .debug_info    0x0006861a     0x1947 build/Debug/debug/_ext/1472/MyTFTP.o
 .debug_info    0x00069f61     0x1ab8 build/Debug/debug/_ext/1472/Settings.o
 .debug_info    0x0006ba19     0x19b4 build/Debug/debug/_ext/1472/HodoCrate.o
 .debug_info    0x0006d3cd     0x1783 build/Debug/debug/_ext/1472/BerkeleyTCPServerDemo.o
 .debug_info    0x0006eb50     0x1b2e build/Debug/debug/_ext/1472/PingDemo.o
 .debug_info    0x0007067e      0x783 /opt/microchip/mplabc32/v2.02/bin/../lib/gcc/pic32mx/4.5.1/libgcc.a(_udivdi3.o)
 .debug_info    0x00070e01      0x188 /opt/microchip/mplabc32/v2.02/bin/../lib/gcc/pic32mx/4.5.1/libgcc.a(floatunsisf.o)
 .debug_info    0x00070f89      0x15b /opt/microchip/mplabc32/v2.02/bin/../lib/gcc/pic32mx/4.5.1/../../../../pic32mx/lib/libdebug.a(db_utils.o)
 .debug_info    0x000710e4       0xcd /opt/microchip/mplabc32/v2.02/bin/../lib/gcc/pic32mx/4.5.1/../../../../pic32mx/lib/libc.a(atoi.o)
 .debug_info    0x000711b1        0x0 /opt/microchip/mplabc32/v2.02/bin/../lib/gcc/pic32mx/4.5.1/../../../../pic32mx/lib/libc.a(c32_uart.o)
 .debug_info    0x000711b1        0x0 /opt/microchip/mplabc32/v2.02/bin/../lib/gcc/pic32mx/4.5.1/../../../../pic32mx/lib/libc.a(ctype.o)
 .debug_info    0x000711b1      0x100 /opt/microchip/mplabc32/v2.02/bin/../lib/gcc/pic32mx/4.5.1/../../../../pic32mx/lib/libc.a(malloc.o)
 .debug_info    0x000712b1       0xe1 /opt/microchip/mplabc32/v2.02/bin/../lib/gcc/pic32mx/4.5.1/../../../../pic32mx/lib/libc.a(puts.o)
 .debug_info    0x00071392       0xe7 /opt/microchip/mplabc32/v2.02/bin/../lib/gcc/pic32mx/4.5.1/../../../../pic32mx/lib/libc.a(rand.o)
 .debug_info    0x00071479       0xd1 /opt/microchip/mplabc32/v2.02/bin/../lib/gcc/pic32mx/4.5.1/../../../../pic32mx/lib/libc.a(strtok.o)
 .debug_info    0x0007154a       0xe3 /opt/microchip/mplabc32/v2.02/bin/../lib/gcc/pic32mx/4.5.1/../../../../pic32mx/lib/libc.a(printf_cdnopsuxX.eo)
 .debug_info    0x0007162d       0xe7 /opt/microchip/mplabc32/v2.02/bin/../lib/gcc/pic32mx/4.5.1/../../../../pic32mx/lib/libc.a(sprintf_cdfFnopsuxX.eo)
 .debug_info    0x00071714      0x139 /opt/microchip/mplabc32/v2.02/bin/../lib/gcc/pic32mx/4.5.1/../../../../pic32mx/lib/libc.a(sbrk.o)
 .debug_info    0x0007184d      0x106 /opt/microchip/mplabc32/v2.02/bin/../lib/gcc/pic32mx/4.5.1/../../../../pic32mx/lib/libc.a(default-bootstrap-exception-handler.o)
 .debug_info    0x00071953       0xe0 /opt/microchip/mplabc32/v2.02/bin/../lib/gcc/pic32mx/4.5.1/../../../../pic32mx/lib/libc.a(default-on-reset.o)
 .debug_info    0x00071a33       0xe8 /opt/microchip/mplabc32/v2.02/bin/../lib/gcc/pic32mx/4.5.1/../../../../pic32mx/lib/libc.a(default-on-bootstrap.o)
 .debug_info    0x00071b1b        0x0 /opt/microchip/mplabc32/v2.02/bin/../lib/gcc/pic32mx/4.5.1/../../../../pic32mx/lib/libc.a(_iob.o)
 .debug_info    0x00071b1b       0xd6 /opt/microchip/mplabc32/v2.02/bin/../lib/gcc/pic32mx/4.5.1/../../../../pic32mx/lib/libc.a(_fputc_simple.o)
 .debug_info    0x00071bf1        0x0 /opt/microchip/mplabc32/v2.02/bin/../lib/gcc/pic32mx/4.5.1/../../../../pic32mx/lib/libc.a(errno.o)
 .debug_info    0x00071bf1       0xd3 /opt/microchip/mplabc32/v2.02/bin/../lib/gcc/pic32mx/4.5.1/../../../../pic32mx/lib/libc.a(strcspn.o)
 .debug_info    0x00071cc4       0xd1 /opt/microchip/mplabc32/v2.02/bin/../lib/gcc/pic32mx/4.5.1/../../../../pic32mx/lib/libc.a(strspn.o)
 .debug_info    0x00071d95      0x108 /opt/microchip/mplabc32/v2.02/bin/../lib/gcc/pic32mx/4.5.1/../../../../pic32mx/lib/libc.a(doprnt_cdfFnopsuxX.eo)
 .debug_info    0x00071e9d       0xd1 /opt/microchip/mplabc32/v2.02/bin/../lib/gcc/pic32mx/4.5.1/../../../../pic32mx/lib/libc.a(write.o)
 .debug_info    0x00071f6e       0xd9 /opt/microchip/mplabc32/v2.02/bin/../lib/gcc/pic32mx/4.5.1/../../../../pic32mx/lib/libc.a(_flsbuf_simple.o)
 .debug_info    0x00072047        0x0 /opt/microchip/mplabc32/v2.02/bin/../lib/gcc/pic32mx/4.5.1/../../../../pic32mx/lib/libc.a(powers.o)
 .debug_info    0x00072047       0xd1 /opt/microchip/mplabc32/v2.02/bin/../lib/gcc/pic32mx/4.5.1/../../../../pic32mx/lib/libc.a(strchr.o)
 .debug_info    0x00072118       0xf3 /opt/microchip/mplabc32/v2.02/bin/../lib/gcc/pic32mx/4.5.1/../../../../pic32mx/lib/libe.a(_floatdisf.o)
 .debug_info    0x0007220b       0xbf /opt/microchip/mplabc32/v2.02/bin/../lib/gcc/pic32mx/4.5.1/../../../../pic32mx/lib/libmchp_peripheral.a(read_core_timer_lib.o)
 .debug_info    0x000722ca      0x180 /opt/microchip/mplabc32/v2.02/bin/../lib/gcc/pic32mx/4.5.1/../../../../pic32mx/lib/libmchp_peripheral_32MX795F512L.a(eth_ack_packet_lib.o)
 .debug_info    0x0007244a      0x107 /opt/microchip/mplabc32/v2.02/bin/../lib/gcc/pic32mx/4.5.1/../../../../pic32mx/lib/libmchp_peripheral_32MX795F512L.a(eth_descriptors_add_lib.o)
 .debug_info    0x00072551       0xd3 /opt/microchip/mplabc32/v2.02/bin/../lib/gcc/pic32mx/4.5.1/../../../../pic32mx/lib/libmchp_peripheral_32MX795F512L.a(eth_init_lib.o)
 .debug_info    0x00072624       0xb7 /opt/microchip/mplabc32/v2.02/bin/../lib/gcc/pic32mx/4.5.1/../../../../pic32mx/lib/libmchp_peripheral_32MX795F512L.a(eth_mac_open_lib.o)
 .debug_info    0x000726db      0x107 /opt/microchip/mplabc32/v2.02/bin/../lib/gcc/pic32mx/4.5.1/../../../../pic32mx/lib/libmchp_peripheral_32MX795F512L.a(eth_mac_set_address_max_lib.o)
 .debug_info    0x000727e2       0xfb /opt/microchip/mplabc32/v2.02/bin/../lib/gcc/pic32mx/4.5.1/../../../../pic32mx/lib/libmchp_peripheral_32MX795F512L.a(eth_rx_buffers_append_lib.o)
 .debug_info    0x000728dd      0x15c /opt/microchip/mplabc32/v2.02/bin/../lib/gcc/pic32mx/4.5.1/../../../../pic32mx/lib/libmchp_peripheral_32MX795F512L.a(eth_rx_filters_lib.o)
 .debug_info    0x00072a39       0xdd /opt/microchip/mplabc32/v2.02/bin/../lib/gcc/pic32mx/4.5.1/../../../../pic32mx/lib/libmchp_peripheral_32MX795F512L.a(eth_rx_get_packet_lib.o)
 .debug_info    0x00072b16       0xc9 /opt/microchip/mplabc32/v2.02/bin/../lib/gcc/pic32mx/4.5.1/../../../../pic32mx/lib/libmchp_peripheral_32MX795F512L.a(eth_rx_set_buffer_size_lib.o)
 .debug_info    0x00072bdf      0x191 /opt/microchip/mplabc32/v2.02/bin/../lib/gcc/pic32mx/4.5.1/../../../../pic32mx/lib/libmchp_peripheral_32MX795F512L.a(eth_tx_packet_lib.o)
 .debug_info    0x00072d70       0xe9 /opt/microchip/mplabc32/v2.02/bin/../lib/gcc/pic32mx/4.5.1/../../../../pic32mx/lib/libmchp_peripheral_32MX795F512L.a(_eth_append_busy_list_lib.o)
 .debug_info    0x00072e59      0x158 /opt/microchip/mplabc32/v2.02/bin/../lib/gcc/pic32mx/4.5.1/../../../../pic32mx/lib/libmchp_peripheral_32MX795F512L.a(eth_miim_access.o)
 .debug_info    0x00072fb1      0x155 /opt/microchip/mplabc32/v2.02/bin/../lib/gcc/pic32mx/4.5.1/../../../../pic32mx/lib/libmchp_peripheral_32MX795F512L.a(eth_miim_legacy.o)
 .debug_info    0x00073106       0xc7 /opt/microchip/mplabc32/v2.02/bin/../lib/gcc/pic32mx/4.5.1/../../../../pic32mx/lib/libmchp_peripheral_32MX795F512L.a(soft_reset_lib.o)
 .debug_info    0x000731cd       0xd4 /opt/microchip/mplabc32/v2.02/bin/../lib/gcc/pic32mx/4.5.1/../../../../pic32mx/lib/libmchp_peripheral_32MX795F512L.a(pcache.o)
 .debug_info    0x000732a1       0xcb /opt/microchip/mplabc32/v2.02/bin/../lib/gcc/pic32mx/4.5.1/../../../../pic32mx/lib/libmchp_peripheral_32MX795F512L.a(int_disable_interrupts_lib.o)
 .debug_info    0x0007336c       0xcb /opt/microchip/mplabc32/v2.02/bin/../lib/gcc/pic32mx/4.5.1/../../../../pic32mx/lib/libmchp_peripheral_32MX795F512L.a(int_restore_interrupts_lib.o)
 .debug_info    0x00073437       0xd1 /opt/microchip/mplabc32/v2.02/bin/../lib/gcc/pic32mx/4.5.1/../../../../pic32mx/lib/libmchp_peripheral_32MX795F512L.a(int_enable_mv_int_lib.o)
 .debug_info    0x00073508      0x1ab /opt/microchip/mplabc32/v2.02/bin/../lib/gcc/pic32mx/4.5.1/../../../../pic32mx/lib/libmchp_peripheral_32MX795F512L.a(int_tbl_lib.o)
 .debug_info    0x000736b3       0xbb /opt/microchip/mplabc32/v2.02/bin/../lib/gcc/pic32mx/4.5.1/../../../../pic32mx/lib/libmchp_peripheral_32MX795F512L.a(nvm_erase_page_lib.o)
 .debug_info    0x0007376e       0xdc /opt/microchip/mplabc32/v2.02/bin/../lib/gcc/pic32mx/4.5.1/../../../../pic32mx/lib/libmchp_peripheral_32MX795F512L.a(nvm_operation_lib.o)
 .debug_info    0x0007384a       0xb9 /opt/microchip/mplabc32/v2.02/bin/../lib/gcc/pic32mx/4.5.1/../../../../pic32mx/lib/libmchp_peripheral_32MX795F512L.a(nvm_write_row_lib.o)
 .debug_info    0x00073903       0xcf /opt/microchip/mplabc32/v2.02/bin/../lib/gcc/pic32mx/4.5.1/../../../../pic32mx/lib/libmchp_peripheral_32MX795F512L.a(port_set_pins_digital_in_lib.o)
 .debug_info    0x000739d2       0xd1 /opt/microchip/mplabc32/v2.02/bin/../lib/gcc/pic32mx/4.5.1/../../../../pic32mx/lib/libmchp_peripheral_32MX795F512L.a(port_set_pins_digital_out_lib.o)
 .debug_info    0x00073aa3        0x0 /opt/microchip/mplabc32/v2.02/bin/../lib/gcc/pic32mx/4.5.1/../../../../pic32mx/lib/libmchp_peripheral_32MX795F512L.a(_ports_tbl_libp.o)
 .debug_info    0x00073aa3       0xc1 /opt/microchip/mplabc32/v2.02/bin/../lib/gcc/pic32mx/4.5.1/../../../../pic32mx/lib/libmchp_peripheral_32MX795F512L.a(I2CAcknowledgeByte.o)
 .debug_info    0x00073b64       0xb5 /opt/microchip/mplabc32/v2.02/bin/../lib/gcc/pic32mx/4.5.1/../../../../pic32mx/lib/libmchp_peripheral_32MX795F512L.a(I2CBusIsIdle.o)
 .debug_info    0x00073c19       0xc9 /opt/microchip/mplabc32/v2.02/bin/../lib/gcc/pic32mx/4.5.1/../../../../pic32mx/lib/libmchp_peripheral_32MX795F512L.a(I2CByteWasAcknowledged.o)
 .debug_info    0x00073ce2       0xb9 /opt/microchip/mplabc32/v2.02/bin/../lib/gcc/pic32mx/4.5.1/../../../../pic32mx/lib/libmchp_peripheral_32MX795F512L.a(I2CClearStatus.o)
 .debug_info    0x00073d9b       0xb5 /opt/microchip/mplabc32/v2.02/bin/../lib/gcc/pic32mx/4.5.1/../../../../pic32mx/lib/libmchp_peripheral_32MX795F512L.a(I2CConfigure.o)
 .debug_info    0x00073e50       0xaf /opt/microchip/mplabc32/v2.02/bin/../lib/gcc/pic32mx/4.5.1/../../../../pic32mx/lib/libmchp_peripheral_32MX795F512L.a(I2CEnable.o)
 .debug_info    0x00073eff       0xb1 /opt/microchip/mplabc32/v2.02/bin/../lib/gcc/pic32mx/4.5.1/../../../../pic32mx/lib/libmchp_peripheral_32MX795F512L.a(I2CGetByte.o)
 .debug_info    0x00073fb0       0xb5 /opt/microchip/mplabc32/v2.02/bin/../lib/gcc/pic32mx/4.5.1/../../../../pic32mx/lib/libmchp_peripheral_32MX795F512L.a(I2CGetStatus.o)
 .debug_info    0x00074065       0xd1 /opt/microchip/mplabc32/v2.02/bin/../lib/gcc/pic32mx/4.5.1/../../../../pic32mx/lib/libmchp_peripheral_32MX795F512L.a(I2CReceivedDataIsAvailable.o)
 .debug_info    0x00074136       0xbf /opt/microchip/mplabc32/v2.02/bin/../lib/gcc/pic32mx/4.5.1/../../../../pic32mx/lib/libmchp_peripheral_32MX795F512L.a(I2CReceiverEnable.o)
 .debug_info    0x000741f5       0xb9 /opt/microchip/mplabc32/v2.02/bin/../lib/gcc/pic32mx/4.5.1/../../../../pic32mx/lib/libmchp_peripheral_32MX795F512L.a(I2CRepeatStart.o)
 .debug_info    0x000742ae       0xb3 /opt/microchip/mplabc32/v2.02/bin/../lib/gcc/pic32mx/4.5.1/../../../../pic32mx/lib/libmchp_peripheral_32MX795F512L.a(I2CSendByte.o)
 .debug_info    0x00074361       0xbb /opt/microchip/mplabc32/v2.02/bin/../lib/gcc/pic32mx/4.5.1/../../../../pic32mx/lib/libmchp_peripheral_32MX795F512L.a(I2CSetFrequency.o)
 .debug_info    0x0007441c       0xad /opt/microchip/mplabc32/v2.02/bin/../lib/gcc/pic32mx/4.5.1/../../../../pic32mx/lib/libmchp_peripheral_32MX795F512L.a(I2CStart.o)
 .debug_info    0x000744c9       0xab /opt/microchip/mplabc32/v2.02/bin/../lib/gcc/pic32mx/4.5.1/../../../../pic32mx/lib/libmchp_peripheral_32MX795F512L.a(I2CStop.o)
 .debug_info    0x00074574       0xd3 /opt/microchip/mplabc32/v2.02/bin/../lib/gcc/pic32mx/4.5.1/../../../../pic32mx/lib/libmchp_peripheral_32MX795F512L.a(I2CTransmissionHasCompleted.o)
 .debug_info    0x00074647       0xc7 /opt/microchip/mplabc32/v2.02/bin/../lib/gcc/pic32mx/4.5.1/../../../../pic32mx/lib/libmchp_peripheral_32MX795F512L.a(I2CTransmitterIsReady.o)
 .debug_info    0x0007470e       0xc9 /opt/microchip/mplabc32/v2.02/bin/../lib/gcc/pic32mx/4.5.1/../../../../pic32mx/lib/libmchp_peripheral_32MX795F512L.a(int_enable_interrupts_lib.o)
 .debug_info    0x000747d7        0x0 /opt/microchip/mplabc32/v2.02/bin/../lib/gcc/pic32mx/4.5.1/../../../../pic32mx/lib/libmchp_peripheral_32MX795F512L.a(I2CPrivate.o)
 .debug_info    0x000747d7       0xd1 /opt/microchip/mplabc32/v2.02/bin/../lib/gcc/pic32mx/4.5.1/../../../../pic32mx/lib/libc.a(calloc.o)
 .debug_info    0x000748a8      0x2d0 /opt/microchip/mplabc32/v2.02/bin/../lib/gcc/pic32mx/4.5.1/libgcc.a(_floatundisf.o)
 .debug_info    0x00074b78      0x7c0 /opt/microchip/mplabc32/v2.02/bin/../lib/gcc/pic32mx/4.5.1/libgcc.a(_umoddi3.o)

.debug_abbrev   0x00000000     0xab37
 *(.debug_abbrev)
 .debug_abbrev  0x00000000      0x1a7 build/Debug/debug/_ext/100901378/WFScan.o
 .debug_abbrev  0x000001a7      0x1bc build/Debug/debug/_ext/100901378/WF_Spi.o
 .debug_abbrev  0x00000363      0x1a7 build/Debug/debug/_ext/100901378/WFEasyConfig.o
 .debug_abbrev  0x0000050a      0x1a7 build/Debug/debug/_ext/100901378/WFConsole.o
 .debug_abbrev  0x000006b1      0x1bc build/Debug/debug/_ext/100901378/WF_Eint.o
 .debug_abbrev  0x0000086d      0x1a7 build/Debug/debug/_ext/100901378/WFConnectionManager.o
 .debug_abbrev  0x00000a14      0x1a7 build/Debug/debug/_ext/100901378/WFPowerSave.o
 .debug_abbrev  0x00000bbb      0x1a7 build/Debug/debug/_ext/100901378/WFParamMsg.o
 .debug_abbrev  0x00000d62      0x1a7 build/Debug/debug/_ext/100901378/WFConnectionProfile.o
 .debug_abbrev  0x00000f09      0x1bc build/Debug/debug/_ext/100901378/WFDriverRaw.o
 .debug_abbrev  0x000010c5      0x1a7 build/Debug/debug/_ext/100901378/WFConsoleIwpriv.o
 .debug_abbrev  0x0000126c      0x1a7 build/Debug/debug/_ext/100901378/WFTxPower.o
 .debug_abbrev  0x00001413      0x1a7 build/Debug/debug/_ext/100901378/WFInit.o
 .debug_abbrev  0x000015ba      0x1bc build/Debug/debug/_ext/100901378/WFDriverCom.o
 .debug_abbrev  0x00001776      0x1a7 build/Debug/debug/_ext/100901378/WFConsoleMsgHandler.o
 .debug_abbrev  0x0000191d      0x1a7 build/Debug/debug/_ext/100901378/WFEventHandler.o
 .debug_abbrev  0x00001ac4      0x1a7 build/Debug/debug/_ext/100901378/WFConsoleIwconfig.o
 .debug_abbrev  0x00001c6b      0x1a7 build/Debug/debug/_ext/100901378/WFConsoleIfconfig.o
 .debug_abbrev  0x00001e12      0x1a7 build/Debug/debug/_ext/100901378/WFConnectionAlgorithm.o
 .debug_abbrev  0x00001fb9      0x1bc build/Debug/debug/_ext/100901378/WFMac.o
 .debug_abbrev  0x00002175      0x1a7 build/Debug/debug/_ext/100901378/WFDataTxRx.o
 .debug_abbrev  0x0000231c      0x1a7 build/Debug/debug/_ext/100901378/WFMgmtMsg.o
 .debug_abbrev  0x000024c3      0x1a7 build/Debug/debug/_ext/100901378/WFConsoleMsgs.o
 .debug_abbrev  0x0000266a      0x2cb build/Debug/debug/_ext/867694782/TFTPc.o
 .debug_abbrev  0x00002935      0x20f build/Debug/debug/_ext/867694782/Announce.o
 .debug_abbrev  0x00002b44      0x1a7 build/Debug/debug/_ext/867694782/CAN2TCPBridge.o
 .debug_abbrev  0x00002ceb      0x1a7 build/Debug/debug/_ext/867694782/FTP.o
 .debug_abbrev  0x00002e92      0x1a7 build/Debug/debug/_ext/867694782/ENC28J60.o
 .debug_abbrev  0x00003039      0x1a7 build/Debug/debug/_ext/867694782/SPIRAM.o
 .debug_abbrev  0x000031e0      0x1a7 build/Debug/debug/_ext/867694782/SNMP.o
 .debug_abbrev  0x00003387      0x1a7 build/Debug/debug/_ext/867694782/Hashes.o
 .debug_abbrev  0x0000352e      0x1a7 build/Debug/debug/_ext/867694782/LCDBlocking.o
 .debug_abbrev  0x000036d5      0x244 build/Debug/debug/_ext/867694782/StackTsk.o
 .debug_abbrev  0x00003919      0x292 build/Debug/debug/_ext/867694782/ARP.o
 .debug_abbrev  0x00003bab      0x1a7 build/Debug/debug/_ext/867694782/HTTP.o
 .debug_abbrev  0x00003d52      0x1a7 build/Debug/debug/_ext/867694782/SNTP.o
 .debug_abbrev  0x00003ef9      0x1a7 build/Debug/debug/_ext/867694782/RSA.o
 .debug_abbrev  0x000040a0      0x1a7 build/Debug/debug/_ext/867694782/UART.o
 .debug_abbrev  0x00004247      0x1a7 build/Debug/debug/_ext/867694782/ZeroconfHelper.o
 .debug_abbrev  0x000043ee      0x1a7 build/Debug/debug/_ext/867694782/HTTP2.o
 .debug_abbrev  0x00004595      0x1a7 build/Debug/debug/_ext/867694782/ZeroconfMulticastDNS.o
 .debug_abbrev  0x0000473c      0x1a7 build/Debug/debug/_ext/867694782/NBNS.o
 .debug_abbrev  0x000048e3      0x1a7 build/Debug/debug/_ext/867694782/ENCX24J600.o
 .debug_abbrev  0x00004a8a      0x2ce build/Debug/debug/_ext/867694782/BerkeleyAPI.o
 .debug_abbrev  0x00004d58      0x1a7 build/Debug/debug/_ext/867694782/TCPPerformanceTest.o
 .debug_abbrev  0x00004eff      0x1a7 build/Debug/debug/_ext/867694782/UART2TCPBridge.o
 .debug_abbrev  0x000050a6      0x1a7 build/Debug/debug/_ext/867694782/AutoIP.o
 .debug_abbrev  0x0000524d      0x1a7 build/Debug/debug/_ext/867694782/DHCPs.o
 .debug_abbrev  0x000053f4      0x2c3 build/Debug/debug/_ext/867694782/DHCP.o
 .debug_abbrev  0x000056b7      0x1a7 build/Debug/debug/_ext/867694782/Reboot.o
 .debug_abbrev  0x0000585e      0x1a7 build/Debug/debug/_ext/867694782/SPIEEPROM.o
 .debug_abbrev  0x00005a05      0x1a7 build/Debug/debug/_ext/867694782/SSL.o
 .debug_abbrev  0x00005bac      0x1b6 build/Debug/debug/_ext/867694782/Delay.o
 .debug_abbrev  0x00005d62      0x1a7 build/Debug/debug/_ext/867694782/SPIFlash.o
 .debug_abbrev  0x00005f09      0x1a7 build/Debug/debug/_ext/867694782/DNSs.o
 .debug_abbrev  0x000060b0      0x1a7 build/Debug/debug/_ext/867694782/BigInt.o
 .debug_abbrev  0x00006257      0x2f2 build/Debug/debug/_ext/867694782/UDP.o
 .debug_abbrev  0x00006549      0x1a7 build/Debug/debug/_ext/867694782/DNS.o
 .debug_abbrev  0x000066f0      0x261 build/Debug/debug/_ext/867694782/ICMP.o
 .debug_abbrev  0x00006951      0x358 build/Debug/debug/_ext/867694782/ETHPIC32IntMac.o
 .debug_abbrev  0x00006ca9      0x1a7 build/Debug/debug/_ext/867694782/ETH97J60.o
 .debug_abbrev  0x00006e50      0x24a build/Debug/debug/_ext/867694782/Helpers.o
 .debug_abbrev  0x0000709a      0x1a7 build/Debug/debug/_ext/867694782/ZeroconfLinkLocal.o
 .debug_abbrev  0x00007241      0x25b build/Debug/debug/_ext/867694782/IP.o
 .debug_abbrev  0x0000749c      0x315 build/Debug/debug/_ext/867694782/TCP.o
 .debug_abbrev  0x000077b1      0x1e3 build/Debug/debug/_ext/867694782/ETHPIC32ExtPhyDP83848.o
 .debug_abbrev  0x00007994      0x1a7 build/Debug/debug/_ext/867694782/SMTP.o
 .debug_abbrev  0x00007b3b      0x255 build/Debug/debug/_ext/867694782/Tick.o
 .debug_abbrev  0x00007d90      0x1a7 build/Debug/debug/_ext/867694782/Telnet.o
 .debug_abbrev  0x00007f37      0x338 build/Debug/debug/_ext/867694782/ETHPIC32ExtPhy.o
 .debug_abbrev  0x0000826f      0x1a7 build/Debug/debug/_ext/867694782/Random.o
 .debug_abbrev  0x00008416      0x1a7 build/Debug/debug/_ext/867694782/MPFS.o
 .debug_abbrev  0x000085bd      0x1a7 build/Debug/debug/_ext/867694782/MPFS2.o
 .debug_abbrev  0x00008764      0x1a7 build/Debug/debug/_ext/867694782/DynDNS.o
 .debug_abbrev  0x0000890b      0x1a7 build/Debug/debug/_ext/867694782/UDPPerformanceTest.o
 .debug_abbrev  0x00008ab2      0x1a7 build/Debug/debug/_ext/867694782/ARCFOUR.o
 .debug_abbrev  0x00008c59      0x250 build/Debug/debug/_ext/1472/i2c_support.o
 .debug_abbrev  0x00008ea9      0x3c9 build/Debug/debug/_ext/1472/main.o
 .debug_abbrev  0x00009272      0x204 build/Debug/debug/_ext/1472/MyTFTP.o
 .debug_abbrev  0x00009476      0x216 build/Debug/debug/_ext/1472/Settings.o
 .debug_abbrev  0x0000968c      0x28a build/Debug/debug/_ext/1472/HodoCrate.o
 .debug_abbrev  0x00009916      0x200 build/Debug/debug/_ext/1472/BerkeleyTCPServerDemo.o
 .debug_abbrev  0x00009b16      0x1f8 build/Debug/debug/_ext/1472/PingDemo.o
 .debug_abbrev  0x00009d0e      0x13d /opt/microchip/mplabc32/v2.02/bin/../lib/gcc/pic32mx/4.5.1/libgcc.a(_udivdi3.o)
 .debug_abbrev  0x00009e4b       0x61 /opt/microchip/mplabc32/v2.02/bin/../lib/gcc/pic32mx/4.5.1/libgcc.a(floatunsisf.o)
 .debug_abbrev  0x00009eac       0x25 /opt/microchip/mplabc32/v2.02/bin/../lib/gcc/pic32mx/4.5.1/../../../../pic32mx/lib/libdebug.a(db_utils.o)
 .debug_abbrev  0x00009ed1       0x25 /opt/microchip/mplabc32/v2.02/bin/../lib/gcc/pic32mx/4.5.1/../../../../pic32mx/lib/libc.a(atoi.o)
 .debug_abbrev  0x00009ef6        0x1 /opt/microchip/mplabc32/v2.02/bin/../lib/gcc/pic32mx/4.5.1/../../../../pic32mx/lib/libc.a(c32_uart.o)
 .debug_abbrev  0x00009ef7        0x1 /opt/microchip/mplabc32/v2.02/bin/../lib/gcc/pic32mx/4.5.1/../../../../pic32mx/lib/libc.a(ctype.o)
 .debug_abbrev  0x00009ef8       0x41 /opt/microchip/mplabc32/v2.02/bin/../lib/gcc/pic32mx/4.5.1/../../../../pic32mx/lib/libc.a(malloc.o)
 .debug_abbrev  0x00009f39       0x25 /opt/microchip/mplabc32/v2.02/bin/../lib/gcc/pic32mx/4.5.1/../../../../pic32mx/lib/libc.a(puts.o)
 .debug_abbrev  0x00009f5e       0x41 /opt/microchip/mplabc32/v2.02/bin/../lib/gcc/pic32mx/4.5.1/../../../../pic32mx/lib/libc.a(rand.o)
 .debug_abbrev  0x00009f9f       0x25 /opt/microchip/mplabc32/v2.02/bin/../lib/gcc/pic32mx/4.5.1/../../../../pic32mx/lib/libc.a(strtok.o)
 .debug_abbrev  0x00009fc4       0x27 /opt/microchip/mplabc32/v2.02/bin/../lib/gcc/pic32mx/4.5.1/../../../../pic32mx/lib/libc.a(printf_cdnopsuxX.eo)
 .debug_abbrev  0x00009feb       0x27 /opt/microchip/mplabc32/v2.02/bin/../lib/gcc/pic32mx/4.5.1/../../../../pic32mx/lib/libc.a(sprintf_cdfFnopsuxX.eo)
 .debug_abbrev  0x0000a012       0x38 /opt/microchip/mplabc32/v2.02/bin/../lib/gcc/pic32mx/4.5.1/../../../../pic32mx/lib/libc.a(sbrk.o)
 .debug_abbrev  0x0000a04a       0x25 /opt/microchip/mplabc32/v2.02/bin/../lib/gcc/pic32mx/4.5.1/../../../../pic32mx/lib/libc.a(default-bootstrap-exception-handler.o)
 .debug_abbrev  0x0000a06f       0x25 /opt/microchip/mplabc32/v2.02/bin/../lib/gcc/pic32mx/4.5.1/../../../../pic32mx/lib/libc.a(default-on-reset.o)
 .debug_abbrev  0x0000a094       0x25 /opt/microchip/mplabc32/v2.02/bin/../lib/gcc/pic32mx/4.5.1/../../../../pic32mx/lib/libc.a(default-on-bootstrap.o)
 .debug_abbrev  0x0000a0b9        0x1 /opt/microchip/mplabc32/v2.02/bin/../lib/gcc/pic32mx/4.5.1/../../../../pic32mx/lib/libc.a(_iob.o)
 .debug_abbrev  0x0000a0ba       0x27 /opt/microchip/mplabc32/v2.02/bin/../lib/gcc/pic32mx/4.5.1/../../../../pic32mx/lib/libc.a(_fputc_simple.o)
 .debug_abbrev  0x0000a0e1        0x1 /opt/microchip/mplabc32/v2.02/bin/../lib/gcc/pic32mx/4.5.1/../../../../pic32mx/lib/libc.a(errno.o)
 .debug_abbrev  0x0000a0e2       0x25 /opt/microchip/mplabc32/v2.02/bin/../lib/gcc/pic32mx/4.5.1/../../../../pic32mx/lib/libc.a(strcspn.o)
 .debug_abbrev  0x0000a107       0x25 /opt/microchip/mplabc32/v2.02/bin/../lib/gcc/pic32mx/4.5.1/../../../../pic32mx/lib/libc.a(strspn.o)
 .debug_abbrev  0x0000a12c       0x45 /opt/microchip/mplabc32/v2.02/bin/../lib/gcc/pic32mx/4.5.1/../../../../pic32mx/lib/libc.a(doprnt_cdfFnopsuxX.eo)
 .debug_abbrev  0x0000a171       0x25 /opt/microchip/mplabc32/v2.02/bin/../lib/gcc/pic32mx/4.5.1/../../../../pic32mx/lib/libc.a(write.o)
 .debug_abbrev  0x0000a196       0x27 /opt/microchip/mplabc32/v2.02/bin/../lib/gcc/pic32mx/4.5.1/../../../../pic32mx/lib/libc.a(_flsbuf_simple.o)
 .debug_abbrev  0x0000a1bd        0x1 /opt/microchip/mplabc32/v2.02/bin/../lib/gcc/pic32mx/4.5.1/../../../../pic32mx/lib/libc.a(powers.o)
 .debug_abbrev  0x0000a1be       0x25 /opt/microchip/mplabc32/v2.02/bin/../lib/gcc/pic32mx/4.5.1/../../../../pic32mx/lib/libc.a(strchr.o)
 .debug_abbrev  0x0000a1e3       0x32 /opt/microchip/mplabc32/v2.02/bin/../lib/gcc/pic32mx/4.5.1/../../../../pic32mx/lib/libe.a(_floatdisf.o)
 .debug_abbrev  0x0000a215       0x25 /opt/microchip/mplabc32/v2.02/bin/../lib/gcc/pic32mx/4.5.1/../../../../pic32mx/lib/libmchp_peripheral.a(read_core_timer_lib.o)
 .debug_abbrev  0x0000a23a       0x58 /opt/microchip/mplabc32/v2.02/bin/../lib/gcc/pic32mx/4.5.1/../../../../pic32mx/lib/libmchp_peripheral_32MX795F512L.a(eth_ack_packet_lib.o)
 .debug_abbrev  0x0000a292       0x34 /opt/microchip/mplabc32/v2.02/bin/../lib/gcc/pic32mx/4.5.1/../../../../pic32mx/lib/libmchp_peripheral_32MX795F512L.a(eth_descriptors_add_lib.o)
 .debug_abbrev  0x0000a2c6       0x34 /opt/microchip/mplabc32/v2.02/bin/../lib/gcc/pic32mx/4.5.1/../../../../pic32mx/lib/libmchp_peripheral_32MX795F512L.a(eth_init_lib.o)
 .debug_abbrev  0x0000a2fa       0x25 /opt/microchip/mplabc32/v2.02/bin/../lib/gcc/pic32mx/4.5.1/../../../../pic32mx/lib/libmchp_peripheral_32MX795F512L.a(eth_mac_open_lib.o)
 .debug_abbrev  0x0000a31f       0x25 /opt/microchip/mplabc32/v2.02/bin/../lib/gcc/pic32mx/4.5.1/../../../../pic32mx/lib/libmchp_peripheral_32MX795F512L.a(eth_mac_set_address_max_lib.o)
 .debug_abbrev  0x0000a344       0x34 /opt/microchip/mplabc32/v2.02/bin/../lib/gcc/pic32mx/4.5.1/../../../../pic32mx/lib/libmchp_peripheral_32MX795F512L.a(eth_rx_buffers_append_lib.o)
 .debug_abbrev  0x0000a378       0x25 /opt/microchip/mplabc32/v2.02/bin/../lib/gcc/pic32mx/4.5.1/../../../../pic32mx/lib/libmchp_peripheral_32MX795F512L.a(eth_rx_filters_lib.o)
 .debug_abbrev  0x0000a39d       0x25 /opt/microchip/mplabc32/v2.02/bin/../lib/gcc/pic32mx/4.5.1/../../../../pic32mx/lib/libmchp_peripheral_32MX795F512L.a(eth_rx_get_packet_lib.o)
 .debug_abbrev  0x0000a3c2       0x25 /opt/microchip/mplabc32/v2.02/bin/../lib/gcc/pic32mx/4.5.1/../../../../pic32mx/lib/libmchp_peripheral_32MX795F512L.a(eth_rx_set_buffer_size_lib.o)
 .debug_abbrev  0x0000a3e7       0x61 /opt/microchip/mplabc32/v2.02/bin/../lib/gcc/pic32mx/4.5.1/../../../../pic32mx/lib/libmchp_peripheral_32MX795F512L.a(eth_tx_packet_lib.o)
 .debug_abbrev  0x0000a448       0x34 /opt/microchip/mplabc32/v2.02/bin/../lib/gcc/pic32mx/4.5.1/../../../../pic32mx/lib/libmchp_peripheral_32MX795F512L.a(_eth_append_busy_list_lib.o)
 .debug_abbrev  0x0000a47c       0x38 /opt/microchip/mplabc32/v2.02/bin/../lib/gcc/pic32mx/4.5.1/../../../../pic32mx/lib/libmchp_peripheral_32MX795F512L.a(eth_miim_access.o)
 .debug_abbrev  0x0000a4b4       0x38 /opt/microchip/mplabc32/v2.02/bin/../lib/gcc/pic32mx/4.5.1/../../../../pic32mx/lib/libmchp_peripheral_32MX795F512L.a(eth_miim_legacy.o)
 .debug_abbrev  0x0000a4ec       0x34 /opt/microchip/mplabc32/v2.02/bin/../lib/gcc/pic32mx/4.5.1/../../../../pic32mx/lib/libmchp_peripheral_32MX795F512L.a(soft_reset_lib.o)
 .debug_abbrev  0x0000a520       0x25 /opt/microchip/mplabc32/v2.02/bin/../lib/gcc/pic32mx/4.5.1/../../../../pic32mx/lib/libmchp_peripheral_32MX795F512L.a(pcache.o)
 .debug_abbrev  0x0000a545       0x25 /opt/microchip/mplabc32/v2.02/bin/../lib/gcc/pic32mx/4.5.1/../../../../pic32mx/lib/libmchp_peripheral_32MX795F512L.a(int_disable_interrupts_lib.o)
 .debug_abbrev  0x0000a56a       0x25 /opt/microchip/mplabc32/v2.02/bin/../lib/gcc/pic32mx/4.5.1/../../../../pic32mx/lib/libmchp_peripheral_32MX795F512L.a(int_restore_interrupts_lib.o)
 .debug_abbrev  0x0000a58f       0x25 /opt/microchip/mplabc32/v2.02/bin/../lib/gcc/pic32mx/4.5.1/../../../../pic32mx/lib/libmchp_peripheral_32MX795F512L.a(int_enable_mv_int_lib.o)
 .debug_abbrev  0x0000a5b4       0x25 /opt/microchip/mplabc32/v2.02/bin/../lib/gcc/pic32mx/4.5.1/../../../../pic32mx/lib/libmchp_peripheral_32MX795F512L.a(int_tbl_lib.o)
 .debug_abbrev  0x0000a5d9       0x25 /opt/microchip/mplabc32/v2.02/bin/../lib/gcc/pic32mx/4.5.1/../../../../pic32mx/lib/libmchp_peripheral_32MX795F512L.a(nvm_erase_page_lib.o)
 .debug_abbrev  0x0000a5fe       0x34 /opt/microchip/mplabc32/v2.02/bin/../lib/gcc/pic32mx/4.5.1/../../../../pic32mx/lib/libmchp_peripheral_32MX795F512L.a(nvm_operation_lib.o)
 .debug_abbrev  0x0000a632       0x25 /opt/microchip/mplabc32/v2.02/bin/../lib/gcc/pic32mx/4.5.1/../../../../pic32mx/lib/libmchp_peripheral_32MX795F512L.a(nvm_write_row_lib.o)
 .debug_abbrev  0x0000a657       0x25 /opt/microchip/mplabc32/v2.02/bin/../lib/gcc/pic32mx/4.5.1/../../../../pic32mx/lib/libmchp_peripheral_32MX795F512L.a(port_set_pins_digital_in_lib.o)
 .debug_abbrev  0x0000a67c       0x25 /opt/microchip/mplabc32/v2.02/bin/../lib/gcc/pic32mx/4.5.1/../../../../pic32mx/lib/libmchp_peripheral_32MX795F512L.a(port_set_pins_digital_out_lib.o)
 .debug_abbrev  0x0000a6a1        0x1 /opt/microchip/mplabc32/v2.02/bin/../lib/gcc/pic32mx/4.5.1/../../../../pic32mx/lib/libmchp_peripheral_32MX795F512L.a(_ports_tbl_libp.o)
 .debug_abbrev  0x0000a6a2       0x25 /opt/microchip/mplabc32/v2.02/bin/../lib/gcc/pic32mx/4.5.1/../../../../pic32mx/lib/libmchp_peripheral_32MX795F512L.a(I2CAcknowledgeByte.o)
 .debug_abbrev  0x0000a6c7       0x25 /opt/microchip/mplabc32/v2.02/bin/../lib/gcc/pic32mx/4.5.1/../../../../pic32mx/lib/libmchp_peripheral_32MX795F512L.a(I2CBusIsIdle.o)
 .debug_abbrev  0x0000a6ec       0x25 /opt/microchip/mplabc32/v2.02/bin/../lib/gcc/pic32mx/4.5.1/../../../../pic32mx/lib/libmchp_peripheral_32MX795F512L.a(I2CByteWasAcknowledged.o)
 .debug_abbrev  0x0000a711       0x25 /opt/microchip/mplabc32/v2.02/bin/../lib/gcc/pic32mx/4.5.1/../../../../pic32mx/lib/libmchp_peripheral_32MX795F512L.a(I2CClearStatus.o)
 .debug_abbrev  0x0000a736       0x25 /opt/microchip/mplabc32/v2.02/bin/../lib/gcc/pic32mx/4.5.1/../../../../pic32mx/lib/libmchp_peripheral_32MX795F512L.a(I2CConfigure.o)
 .debug_abbrev  0x0000a75b       0x25 /opt/microchip/mplabc32/v2.02/bin/../lib/gcc/pic32mx/4.5.1/../../../../pic32mx/lib/libmchp_peripheral_32MX795F512L.a(I2CEnable.o)
 .debug_abbrev  0x0000a780       0x25 /opt/microchip/mplabc32/v2.02/bin/../lib/gcc/pic32mx/4.5.1/../../../../pic32mx/lib/libmchp_peripheral_32MX795F512L.a(I2CGetByte.o)
 .debug_abbrev  0x0000a7a5       0x25 /opt/microchip/mplabc32/v2.02/bin/../lib/gcc/pic32mx/4.5.1/../../../../pic32mx/lib/libmchp_peripheral_32MX795F512L.a(I2CGetStatus.o)
 .debug_abbrev  0x0000a7ca       0x25 /opt/microchip/mplabc32/v2.02/bin/../lib/gcc/pic32mx/4.5.1/../../../../pic32mx/lib/libmchp_peripheral_32MX795F512L.a(I2CReceivedDataIsAvailable.o)
 .debug_abbrev  0x0000a7ef       0x25 /opt/microchip/mplabc32/v2.02/bin/../lib/gcc/pic32mx/4.5.1/../../../../pic32mx/lib/libmchp_peripheral_32MX795F512L.a(I2CReceiverEnable.o)
 .debug_abbrev  0x0000a814       0x25 /opt/microchip/mplabc32/v2.02/bin/../lib/gcc/pic32mx/4.5.1/../../../../pic32mx/lib/libmchp_peripheral_32MX795F512L.a(I2CRepeatStart.o)
 .debug_abbrev  0x0000a839       0x25 /opt/microchip/mplabc32/v2.02/bin/../lib/gcc/pic32mx/4.5.1/../../../../pic32mx/lib/libmchp_peripheral_32MX795F512L.a(I2CSendByte.o)
 .debug_abbrev  0x0000a85e       0x25 /opt/microchip/mplabc32/v2.02/bin/../lib/gcc/pic32mx/4.5.1/../../../../pic32mx/lib/libmchp_peripheral_32MX795F512L.a(I2CSetFrequency.o)
 .debug_abbrev  0x0000a883       0x25 /opt/microchip/mplabc32/v2.02/bin/../lib/gcc/pic32mx/4.5.1/../../../../pic32mx/lib/libmchp_peripheral_32MX795F512L.a(I2CStart.o)
 .debug_abbrev  0x0000a8a8       0x25 /opt/microchip/mplabc32/v2.02/bin/../lib/gcc/pic32mx/4.5.1/../../../../pic32mx/lib/libmchp_peripheral_32MX795F512L.a(I2CStop.o)
 .debug_abbrev  0x0000a8cd       0x25 /opt/microchip/mplabc32/v2.02/bin/../lib/gcc/pic32mx/4.5.1/../../../../pic32mx/lib/libmchp_peripheral_32MX795F512L.a(I2CTransmissionHasCompleted.o)
 .debug_abbrev  0x0000a8f2       0x25 /opt/microchip/mplabc32/v2.02/bin/../lib/gcc/pic32mx/4.5.1/../../../../pic32mx/lib/libmchp_peripheral_32MX795F512L.a(I2CTransmitterIsReady.o)
 .debug_abbrev  0x0000a917       0x25 /opt/microchip/mplabc32/v2.02/bin/../lib/gcc/pic32mx/4.5.1/../../../../pic32mx/lib/libmchp_peripheral_32MX795F512L.a(int_enable_interrupts_lib.o)
 .debug_abbrev  0x0000a93c        0x1 /opt/microchip/mplabc32/v2.02/bin/../lib/gcc/pic32mx/4.5.1/../../../../pic32mx/lib/libmchp_peripheral_32MX795F512L.a(I2CPrivate.o)
 .debug_abbrev  0x0000a93d       0x25 /opt/microchip/mplabc32/v2.02/bin/../lib/gcc/pic32mx/4.5.1/../../../../pic32mx/lib/libc.a(calloc.o)
 .debug_abbrev  0x0000a962       0x79 /opt/microchip/mplabc32/v2.02/bin/../lib/gcc/pic32mx/4.5.1/libgcc.a(_floatundisf.o)
 .debug_abbrev  0x0000a9db      0x15c /opt/microchip/mplabc32/v2.02/bin/../lib/gcc/pic32mx/4.5.1/libgcc.a(_umoddi3.o)

.debug_line     0x00000000     0xd27b
 *(.debug_line)
 .debug_line    0x00000000      0x1a1 build/Debug/debug/_ext/100901378/WFScan.o
 .debug_line    0x000001a1      0x1de build/Debug/debug/_ext/100901378/WF_Spi.o
 .debug_line    0x0000037f      0x1a1 build/Debug/debug/_ext/100901378/WFEasyConfig.o
 .debug_line    0x00000520      0x1a1 build/Debug/debug/_ext/100901378/WFConsole.o
 .debug_line    0x000006c1      0x1df build/Debug/debug/_ext/100901378/WF_Eint.o
 .debug_line    0x000008a0      0x1a1 build/Debug/debug/_ext/100901378/WFConnectionManager.o
 .debug_line    0x00000a41      0x1a1 build/Debug/debug/_ext/100901378/WFPowerSave.o
 .debug_line    0x00000be2      0x1a1 build/Debug/debug/_ext/100901378/WFParamMsg.o
 .debug_line    0x00000d83      0x1a1 build/Debug/debug/_ext/100901378/WFConnectionProfile.o
 .debug_line    0x00000f24      0x1e3 build/Debug/debug/_ext/100901378/WFDriverRaw.o
 .debug_line    0x00001107      0x1a1 build/Debug/debug/_ext/100901378/WFConsoleIwpriv.o
 .debug_line    0x000012a8      0x1a1 build/Debug/debug/_ext/100901378/WFTxPower.o
 .debug_line    0x00001449      0x1a1 build/Debug/debug/_ext/100901378/WFInit.o
 .debug_line    0x000015ea      0x1e3 build/Debug/debug/_ext/100901378/WFDriverCom.o
 .debug_line    0x000017cd      0x1a1 build/Debug/debug/_ext/100901378/WFConsoleMsgHandler.o
 .debug_line    0x0000196e      0x1a1 build/Debug/debug/_ext/100901378/WFEventHandler.o
 .debug_line    0x00001b0f      0x1a1 build/Debug/debug/_ext/100901378/WFConsoleIwconfig.o
 .debug_line    0x00001cb0      0x1a1 build/Debug/debug/_ext/100901378/WFConsoleIfconfig.o
 .debug_line    0x00001e51      0x1a1 build/Debug/debug/_ext/100901378/WFConnectionAlgorithm.o
 .debug_line    0x00001ff2      0x1dd build/Debug/debug/_ext/100901378/WFMac.o
 .debug_line    0x000021cf      0x1a1 build/Debug/debug/_ext/100901378/WFDataTxRx.o
 .debug_line    0x00002370      0x1a1 build/Debug/debug/_ext/100901378/WFMgmtMsg.o
 .debug_line    0x00002511      0x1a1 build/Debug/debug/_ext/100901378/WFConsoleMsgs.o
 .debug_line    0x000026b2      0x36c build/Debug/debug/_ext/867694782/TFTPc.o
 .debug_line    0x00002a1e      0x282 build/Debug/debug/_ext/867694782/Announce.o
 .debug_line    0x00002ca0      0x1a1 build/Debug/debug/_ext/867694782/CAN2TCPBridge.o
 .debug_line    0x00002e41      0x1a1 build/Debug/debug/_ext/867694782/FTP.o
 .debug_line    0x00002fe2      0x1a1 build/Debug/debug/_ext/867694782/ENC28J60.o
 .debug_line    0x00003183      0x1a1 build/Debug/debug/_ext/867694782/SPIRAM.o
 .debug_line    0x00003324      0x1a1 build/Debug/debug/_ext/867694782/SNMP.o
 .debug_line    0x000034c5      0x1a1 build/Debug/debug/_ext/867694782/Hashes.o
 .debug_line    0x00003666      0x1a1 build/Debug/debug/_ext/867694782/LCDBlocking.o
 .debug_line    0x00003807      0x278 build/Debug/debug/_ext/867694782/StackTsk.o
 .debug_line    0x00003a7f      0x2dd build/Debug/debug/_ext/867694782/ARP.o
 .debug_line    0x00003d5c      0x1a1 build/Debug/debug/_ext/867694782/HTTP.o
 .debug_line    0x00003efd      0x1a1 build/Debug/debug/_ext/867694782/SNTP.o
 .debug_line    0x0000409e      0x1a1 build/Debug/debug/_ext/867694782/RSA.o
 .debug_line    0x0000423f      0x1a1 build/Debug/debug/_ext/867694782/UART.o
 .debug_line    0x000043e0      0x1a1 build/Debug/debug/_ext/867694782/ZeroconfHelper.o
 .debug_line    0x00004581      0x1a1 build/Debug/debug/_ext/867694782/HTTP2.o
 .debug_line    0x00004722      0x1a1 build/Debug/debug/_ext/867694782/ZeroconfMulticastDNS.o
 .debug_line    0x000048c3      0x1a1 build/Debug/debug/_ext/867694782/NBNS.o
 .debug_line    0x00004a64      0x1a1 build/Debug/debug/_ext/867694782/ENCX24J600.o
 .debug_line    0x00004c05      0x460 build/Debug/debug/_ext/867694782/BerkeleyAPI.o
 .debug_line    0x00005065      0x1a1 build/Debug/debug/_ext/867694782/TCPPerformanceTest.o
 .debug_line    0x00005206      0x1a1 build/Debug/debug/_ext/867694782/UART2TCPBridge.o
 .debug_line    0x000053a7      0x1a1 build/Debug/debug/_ext/867694782/AutoIP.o
 .debug_line    0x00005548      0x1a1 build/Debug/debug/_ext/867694782/DHCPs.o
 .debug_line    0x000056e9      0x423 build/Debug/debug/_ext/867694782/DHCP.o
 .debug_line    0x00005b0c      0x1a1 build/Debug/debug/_ext/867694782/Reboot.o
 .debug_line    0x00005cad      0x1a1 build/Debug/debug/_ext/867694782/SPIEEPROM.o
 .debug_line    0x00005e4e      0x1a1 build/Debug/debug/_ext/867694782/SSL.o
 .debug_line    0x00005fef      0x1eb build/Debug/debug/_ext/867694782/Delay.o
 .debug_line    0x000061da      0x1a1 build/Debug/debug/_ext/867694782/SPIFlash.o
 .debug_line    0x0000637b      0x1a1 build/Debug/debug/_ext/867694782/DNSs.o
 .debug_line    0x0000651c      0x1a1 build/Debug/debug/_ext/867694782/BigInt.o
 .debug_line    0x000066bd      0x354 build/Debug/debug/_ext/867694782/UDP.o
 .debug_line    0x00006a11      0x1a1 build/Debug/debug/_ext/867694782/DNS.o
 .debug_line    0x00006bb2      0x28f build/Debug/debug/_ext/867694782/ICMP.o
 .debug_line    0x00006e41      0x498 build/Debug/debug/_ext/867694782/ETHPIC32IntMac.o
 .debug_line    0x000072d9      0x1a1 build/Debug/debug/_ext/867694782/ETH97J60.o
 .debug_line    0x0000747a      0x3cd build/Debug/debug/_ext/867694782/Helpers.o
 .debug_line    0x00007847      0x1a1 build/Debug/debug/_ext/867694782/ZeroconfLinkLocal.o
 .debug_line    0x000079e8      0x257 build/Debug/debug/_ext/867694782/IP.o
 .debug_line    0x00007c3f      0xb99 build/Debug/debug/_ext/867694782/TCP.o
 .debug_line    0x000087d8      0x26c build/Debug/debug/_ext/867694782/ETHPIC32ExtPhyDP83848.o
 .debug_line    0x00008a44      0x1a1 build/Debug/debug/_ext/867694782/SMTP.o
 .debug_line    0x00008be5      0x227 build/Debug/debug/_ext/867694782/Tick.o
 .debug_line    0x00008e0c      0x1a1 build/Debug/debug/_ext/867694782/Telnet.o
 .debug_line    0x00008fad      0x432 build/Debug/debug/_ext/867694782/ETHPIC32ExtPhy.o
 .debug_line    0x000093df      0x1a1 build/Debug/debug/_ext/867694782/Random.o
 .debug_line    0x00009580      0x1a1 build/Debug/debug/_ext/867694782/MPFS.o
 .debug_line    0x00009721      0x1a1 build/Debug/debug/_ext/867694782/MPFS2.o
 .debug_line    0x000098c2      0x1a1 build/Debug/debug/_ext/867694782/DynDNS.o
 .debug_line    0x00009a63      0x1a1 build/Debug/debug/_ext/867694782/UDPPerformanceTest.o
 .debug_line    0x00009c04      0x1a1 build/Debug/debug/_ext/867694782/ARCFOUR.o
 .debug_line    0x00009da5      0x27a build/Debug/debug/_ext/1472/i2c_support.o
 .debug_line    0x0000a01f      0x5fa build/Debug/debug/_ext/1472/main.o
 .debug_line    0x0000a619      0x255 build/Debug/debug/_ext/1472/MyTFTP.o
 .debug_line    0x0000a86e      0x22c build/Debug/debug/_ext/1472/Settings.o
 .debug_line    0x0000aa9a      0x311 build/Debug/debug/_ext/1472/HodoCrate.o
 .debug_line    0x0000adab      0x261 build/Debug/debug/_ext/1472/BerkeleyTCPServerDemo.o
 .debug_line    0x0000b00c      0x21c build/Debug/debug/_ext/1472/PingDemo.o
 .debug_line    0x0000b228      0x112 /opt/microchip/mplabc32/v2.02/bin/../lib/gcc/pic32mx/4.5.1/libgcc.a(_udivdi3.o)
 .debug_line    0x0000b33a       0x6d /opt/microchip/mplabc32/v2.02/bin/../lib/gcc/pic32mx/4.5.1/libgcc.a(floatunsisf.o)
 .debug_line    0x0000b3a7       0x93 /opt/microchip/mplabc32/v2.02/bin/../lib/gcc/pic32mx/4.5.1/../../../../pic32mx/lib/libdebug.a(db_utils.o)
 .debug_line    0x0000b43a       0x85 /opt/microchip/mplabc32/v2.02/bin/../lib/gcc/pic32mx/4.5.1/../../../../pic32mx/lib/libc.a(atoi.o)
 .debug_line    0x0000b4bf        0x0 /opt/microchip/mplabc32/v2.02/bin/../lib/gcc/pic32mx/4.5.1/../../../../pic32mx/lib/libc.a(c32_uart.o)
 .debug_line    0x0000b4bf        0x0 /opt/microchip/mplabc32/v2.02/bin/../lib/gcc/pic32mx/4.5.1/../../../../pic32mx/lib/libc.a(ctype.o)
 .debug_line    0x0000b4bf       0x87 /opt/microchip/mplabc32/v2.02/bin/../lib/gcc/pic32mx/4.5.1/../../../../pic32mx/lib/libc.a(malloc.o)
 .debug_line    0x0000b546       0x85 /opt/microchip/mplabc32/v2.02/bin/../lib/gcc/pic32mx/4.5.1/../../../../pic32mx/lib/libc.a(puts.o)
 .debug_line    0x0000b5cb       0x85 /opt/microchip/mplabc32/v2.02/bin/../lib/gcc/pic32mx/4.5.1/../../../../pic32mx/lib/libc.a(rand.o)
 .debug_line    0x0000b650       0x87 /opt/microchip/mplabc32/v2.02/bin/../lib/gcc/pic32mx/4.5.1/../../../../pic32mx/lib/libc.a(strtok.o)
 .debug_line    0x0000b6d7       0x30 /opt/microchip/mplabc32/v2.02/bin/../lib/gcc/pic32mx/4.5.1/../../../../pic32mx/lib/libc.a(printf_cdnopsuxX.eo)
 .debug_line    0x0000b707       0x31 /opt/microchip/mplabc32/v2.02/bin/../lib/gcc/pic32mx/4.5.1/../../../../pic32mx/lib/libc.a(sprintf_cdfFnopsuxX.eo)
 .debug_line    0x0000b738       0x87 /opt/microchip/mplabc32/v2.02/bin/../lib/gcc/pic32mx/4.5.1/../../../../pic32mx/lib/libc.a(sbrk.o)
 .debug_line    0x0000b7bf       0xa6 /opt/microchip/mplabc32/v2.02/bin/../lib/gcc/pic32mx/4.5.1/../../../../pic32mx/lib/libc.a(default-bootstrap-exception-handler.o)
 .debug_line    0x0000b865       0x93 /opt/microchip/mplabc32/v2.02/bin/../lib/gcc/pic32mx/4.5.1/../../../../pic32mx/lib/libc.a(default-on-reset.o)
 .debug_line    0x0000b8f8       0x97 /opt/microchip/mplabc32/v2.02/bin/../lib/gcc/pic32mx/4.5.1/../../../../pic32mx/lib/libc.a(default-on-bootstrap.o)
 .debug_line    0x0000b98f        0x0 /opt/microchip/mplabc32/v2.02/bin/../lib/gcc/pic32mx/4.5.1/../../../../pic32mx/lib/libc.a(_iob.o)
 .debug_line    0x0000b98f       0x2f /opt/microchip/mplabc32/v2.02/bin/../lib/gcc/pic32mx/4.5.1/../../../../pic32mx/lib/libc.a(_fputc_simple.o)
 .debug_line    0x0000b9be        0x0 /opt/microchip/mplabc32/v2.02/bin/../lib/gcc/pic32mx/4.5.1/../../../../pic32mx/lib/libc.a(errno.o)
 .debug_line    0x0000b9be       0x88 /opt/microchip/mplabc32/v2.02/bin/../lib/gcc/pic32mx/4.5.1/../../../../pic32mx/lib/libc.a(strcspn.o)
 .debug_line    0x0000ba46       0x87 /opt/microchip/mplabc32/v2.02/bin/../lib/gcc/pic32mx/4.5.1/../../../../pic32mx/lib/libc.a(strspn.o)
 .debug_line    0x0000bacd       0x30 /opt/microchip/mplabc32/v2.02/bin/../lib/gcc/pic32mx/4.5.1/../../../../pic32mx/lib/libc.a(doprnt_cdfFnopsuxX.eo)
 .debug_line    0x0000bafd       0x88 /opt/microchip/mplabc32/v2.02/bin/../lib/gcc/pic32mx/4.5.1/../../../../pic32mx/lib/libc.a(write.o)
 .debug_line    0x0000bb85       0x30 /opt/microchip/mplabc32/v2.02/bin/../lib/gcc/pic32mx/4.5.1/../../../../pic32mx/lib/libc.a(_flsbuf_simple.o)
 .debug_line    0x0000bbb5        0x0 /opt/microchip/mplabc32/v2.02/bin/../lib/gcc/pic32mx/4.5.1/../../../../pic32mx/lib/libc.a(powers.o)
 .debug_line    0x0000bbb5       0x87 /opt/microchip/mplabc32/v2.02/bin/../lib/gcc/pic32mx/4.5.1/../../../../pic32mx/lib/libc.a(strchr.o)
 .debug_line    0x0000bc3c       0xa6 /opt/microchip/mplabc32/v2.02/bin/../lib/gcc/pic32mx/4.5.1/../../../../pic32mx/lib/libe.a(_floatdisf.o)
 .debug_line    0x0000bce2       0x6e /opt/microchip/mplabc32/v2.02/bin/../lib/gcc/pic32mx/4.5.1/../../../../pic32mx/lib/libmchp_peripheral.a(read_core_timer_lib.o)
 .debug_line    0x0000bd50       0x80 /opt/microchip/mplabc32/v2.02/bin/../lib/gcc/pic32mx/4.5.1/../../../../pic32mx/lib/libmchp_peripheral_32MX795F512L.a(eth_ack_packet_lib.o)
 .debug_line    0x0000bdd0       0x85 /opt/microchip/mplabc32/v2.02/bin/../lib/gcc/pic32mx/4.5.1/../../../../pic32mx/lib/libmchp_peripheral_32MX795F512L.a(eth_descriptors_add_lib.o)
 .debug_line    0x0000be55       0x77 /opt/microchip/mplabc32/v2.02/bin/../lib/gcc/pic32mx/4.5.1/../../../../pic32mx/lib/libmchp_peripheral_32MX795F512L.a(eth_init_lib.o)
 .debug_line    0x0000becc       0x69 /opt/microchip/mplabc32/v2.02/bin/../lib/gcc/pic32mx/4.5.1/../../../../pic32mx/lib/libmchp_peripheral_32MX795F512L.a(eth_mac_open_lib.o)
 .debug_line    0x0000bf35       0x74 /opt/microchip/mplabc32/v2.02/bin/../lib/gcc/pic32mx/4.5.1/../../../../pic32mx/lib/libmchp_peripheral_32MX795F512L.a(eth_mac_set_address_max_lib.o)
 .debug_line    0x0000bfa9       0x87 /opt/microchip/mplabc32/v2.02/bin/../lib/gcc/pic32mx/4.5.1/../../../../pic32mx/lib/libmchp_peripheral_32MX795F512L.a(eth_rx_buffers_append_lib.o)
 .debug_line    0x0000c030       0x6b /opt/microchip/mplabc32/v2.02/bin/../lib/gcc/pic32mx/4.5.1/../../../../pic32mx/lib/libmchp_peripheral_32MX795F512L.a(eth_rx_filters_lib.o)
 .debug_line    0x0000c09b       0x6e /opt/microchip/mplabc32/v2.02/bin/../lib/gcc/pic32mx/4.5.1/../../../../pic32mx/lib/libmchp_peripheral_32MX795F512L.a(eth_rx_get_packet_lib.o)
 .debug_line    0x0000c109       0x73 /opt/microchip/mplabc32/v2.02/bin/../lib/gcc/pic32mx/4.5.1/../../../../pic32mx/lib/libmchp_peripheral_32MX795F512L.a(eth_rx_set_buffer_size_lib.o)
 .debug_line    0x0000c17c       0x7f /opt/microchip/mplabc32/v2.02/bin/../lib/gcc/pic32mx/4.5.1/../../../../pic32mx/lib/libmchp_peripheral_32MX795F512L.a(eth_tx_packet_lib.o)
 .debug_line    0x0000c1fb       0x87 /opt/microchip/mplabc32/v2.02/bin/../lib/gcc/pic32mx/4.5.1/../../../../pic32mx/lib/libmchp_peripheral_32MX795F512L.a(_eth_append_busy_list_lib.o)
 .debug_line    0x0000c282       0x68 /opt/microchip/mplabc32/v2.02/bin/../lib/gcc/pic32mx/4.5.1/../../../../pic32mx/lib/libmchp_peripheral_32MX795F512L.a(eth_miim_access.o)
 .debug_line    0x0000c2ea       0x68 /opt/microchip/mplabc32/v2.02/bin/../lib/gcc/pic32mx/4.5.1/../../../../pic32mx/lib/libmchp_peripheral_32MX795F512L.a(eth_miim_legacy.o)
 .debug_line    0x0000c352       0xbf /opt/microchip/mplabc32/v2.02/bin/../lib/gcc/pic32mx/4.5.1/../../../../pic32mx/lib/libmchp_peripheral_32MX795F512L.a(soft_reset_lib.o)
 .debug_line    0x0000c411       0x62 /opt/microchip/mplabc32/v2.02/bin/../lib/gcc/pic32mx/4.5.1/../../../../pic32mx/lib/libmchp_peripheral_32MX795F512L.a(pcache.o)
 .debug_line    0x0000c473       0x73 /opt/microchip/mplabc32/v2.02/bin/../lib/gcc/pic32mx/4.5.1/../../../../pic32mx/lib/libmchp_peripheral_32MX795F512L.a(int_disable_interrupts_lib.o)
 .debug_line    0x0000c4e6       0x73 /opt/microchip/mplabc32/v2.02/bin/../lib/gcc/pic32mx/4.5.1/../../../../pic32mx/lib/libmchp_peripheral_32MX795F512L.a(int_restore_interrupts_lib.o)
 .debug_line    0x0000c559       0x6e /opt/microchip/mplabc32/v2.02/bin/../lib/gcc/pic32mx/4.5.1/../../../../pic32mx/lib/libmchp_peripheral_32MX795F512L.a(int_enable_mv_int_lib.o)
 .debug_line    0x0000c5c7       0x64 /opt/microchip/mplabc32/v2.02/bin/../lib/gcc/pic32mx/4.5.1/../../../../pic32mx/lib/libmchp_peripheral_32MX795F512L.a(int_tbl_lib.o)
 .debug_line    0x0000c62b       0x6b /opt/microchip/mplabc32/v2.02/bin/../lib/gcc/pic32mx/4.5.1/../../../../pic32mx/lib/libmchp_peripheral_32MX795F512L.a(nvm_erase_page_lib.o)
 .debug_line    0x0000c696       0xc0 /opt/microchip/mplabc32/v2.02/bin/../lib/gcc/pic32mx/4.5.1/../../../../pic32mx/lib/libmchp_peripheral_32MX795F512L.a(nvm_operation_lib.o)
 .debug_line    0x0000c756       0x6a /opt/microchip/mplabc32/v2.02/bin/../lib/gcc/pic32mx/4.5.1/../../../../pic32mx/lib/libmchp_peripheral_32MX795F512L.a(nvm_write_row_lib.o)
 .debug_line    0x0000c7c0       0x77 /opt/microchip/mplabc32/v2.02/bin/../lib/gcc/pic32mx/4.5.1/../../../../pic32mx/lib/libmchp_peripheral_32MX795F512L.a(port_set_pins_digital_in_lib.o)
 .debug_line    0x0000c837       0x78 /opt/microchip/mplabc32/v2.02/bin/../lib/gcc/pic32mx/4.5.1/../../../../pic32mx/lib/libmchp_peripheral_32MX795F512L.a(port_set_pins_digital_out_lib.o)
 .debug_line    0x0000c8af        0x0 /opt/microchip/mplabc32/v2.02/bin/../lib/gcc/pic32mx/4.5.1/../../../../pic32mx/lib/libmchp_peripheral_32MX795F512L.a(_ports_tbl_libp.o)
 .debug_line    0x0000c8af       0x6b /opt/microchip/mplabc32/v2.02/bin/../lib/gcc/pic32mx/4.5.1/../../../../pic32mx/lib/libmchp_peripheral_32MX795F512L.a(I2CAcknowledgeByte.o)
 .debug_line    0x0000c91a       0x65 /opt/microchip/mplabc32/v2.02/bin/../lib/gcc/pic32mx/4.5.1/../../../../pic32mx/lib/libmchp_peripheral_32MX795F512L.a(I2CBusIsIdle.o)
 .debug_line    0x0000c97f       0x6f /opt/microchip/mplabc32/v2.02/bin/../lib/gcc/pic32mx/4.5.1/../../../../pic32mx/lib/libmchp_peripheral_32MX795F512L.a(I2CByteWasAcknowledged.o)
 .debug_line    0x0000c9ee       0x67 /opt/microchip/mplabc32/v2.02/bin/../lib/gcc/pic32mx/4.5.1/../../../../pic32mx/lib/libmchp_peripheral_32MX795F512L.a(I2CClearStatus.o)
 .debug_line    0x0000ca55       0x65 /opt/microchip/mplabc32/v2.02/bin/../lib/gcc/pic32mx/4.5.1/../../../../pic32mx/lib/libmchp_peripheral_32MX795F512L.a(I2CConfigure.o)
 .debug_line    0x0000caba       0x62 /opt/microchip/mplabc32/v2.02/bin/../lib/gcc/pic32mx/4.5.1/../../../../pic32mx/lib/libmchp_peripheral_32MX795F512L.a(I2CEnable.o)
 .debug_line    0x0000cb1c       0x63 /opt/microchip/mplabc32/v2.02/bin/../lib/gcc/pic32mx/4.5.1/../../../../pic32mx/lib/libmchp_peripheral_32MX795F512L.a(I2CGetByte.o)
 .debug_line    0x0000cb7f       0x65 /opt/microchip/mplabc32/v2.02/bin/../lib/gcc/pic32mx/4.5.1/../../../../pic32mx/lib/libmchp_peripheral_32MX795F512L.a(I2CGetStatus.o)
 .debug_line    0x0000cbe4       0x73 /opt/microchip/mplabc32/v2.02/bin/../lib/gcc/pic32mx/4.5.1/../../../../pic32mx/lib/libmchp_peripheral_32MX795F512L.a(I2CReceivedDataIsAvailable.o)
 .debug_line    0x0000cc57       0x6a /opt/microchip/mplabc32/v2.02/bin/../lib/gcc/pic32mx/4.5.1/../../../../pic32mx/lib/libmchp_peripheral_32MX795F512L.a(I2CReceiverEnable.o)
 .debug_line    0x0000ccc1       0x67 /opt/microchip/mplabc32/v2.02/bin/../lib/gcc/pic32mx/4.5.1/../../../../pic32mx/lib/libmchp_peripheral_32MX795F512L.a(I2CRepeatStart.o)
 .debug_line    0x0000cd28       0x64 /opt/microchip/mplabc32/v2.02/bin/../lib/gcc/pic32mx/4.5.1/../../../../pic32mx/lib/libmchp_peripheral_32MX795F512L.a(I2CSendByte.o)
 .debug_line    0x0000cd8c       0x68 /opt/microchip/mplabc32/v2.02/bin/../lib/gcc/pic32mx/4.5.1/../../../../pic32mx/lib/libmchp_peripheral_32MX795F512L.a(I2CSetFrequency.o)
 .debug_line    0x0000cdf4       0x61 /opt/microchip/mplabc32/v2.02/bin/../lib/gcc/pic32mx/4.5.1/../../../../pic32mx/lib/libmchp_peripheral_32MX795F512L.a(I2CStart.o)
 .debug_line    0x0000ce55       0x60 /opt/microchip/mplabc32/v2.02/bin/../lib/gcc/pic32mx/4.5.1/../../../../pic32mx/lib/libmchp_peripheral_32MX795F512L.a(I2CStop.o)
 .debug_line    0x0000ceb5       0x74 /opt/microchip/mplabc32/v2.02/bin/../lib/gcc/pic32mx/4.5.1/../../../../pic32mx/lib/libmchp_peripheral_32MX795F512L.a(I2CTransmissionHasCompleted.o)
 .debug_line    0x0000cf29       0x6e /opt/microchip/mplabc32/v2.02/bin/../lib/gcc/pic32mx/4.5.1/../../../../pic32mx/lib/libmchp_peripheral_32MX795F512L.a(I2CTransmitterIsReady.o)
 .debug_line    0x0000cf97       0x72 /opt/microchip/mplabc32/v2.02/bin/../lib/gcc/pic32mx/4.5.1/../../../../pic32mx/lib/libmchp_peripheral_32MX795F512L.a(int_enable_interrupts_lib.o)
 .debug_line    0x0000d009        0x0 /opt/microchip/mplabc32/v2.02/bin/../lib/gcc/pic32mx/4.5.1/../../../../pic32mx/lib/libmchp_peripheral_32MX795F512L.a(I2CPrivate.o)
 .debug_line    0x0000d009       0x87 /opt/microchip/mplabc32/v2.02/bin/../lib/gcc/pic32mx/4.5.1/../../../../pic32mx/lib/libc.a(calloc.o)
 .debug_line    0x0000d090       0xc3 /opt/microchip/mplabc32/v2.02/bin/../lib/gcc/pic32mx/4.5.1/libgcc.a(_floatundisf.o)
 .debug_line    0x0000d153      0x128 /opt/microchip/mplabc32/v2.02/bin/../lib/gcc/pic32mx/4.5.1/libgcc.a(_umoddi3.o)

.debug_frame    0x00000000     0x4010
 *(.debug_frame)
 .debug_frame   0x00000000       0x58 build/Debug/debug/_ext/100901378/WFScan.o
 .debug_frame   0x00000058       0x70 build/Debug/debug/_ext/100901378/WF_Spi.o
 .debug_frame   0x000000c8       0x58 build/Debug/debug/_ext/100901378/WFEasyConfig.o
 .debug_frame   0x00000120       0x58 build/Debug/debug/_ext/100901378/WFConsole.o
 .debug_frame   0x00000178       0x70 build/Debug/debug/_ext/100901378/WF_Eint.o
 .debug_frame   0x000001e8       0x58 build/Debug/debug/_ext/100901378/WFConnectionManager.o
 .debug_frame   0x00000240       0x58 build/Debug/debug/_ext/100901378/WFPowerSave.o
 .debug_frame   0x00000298       0x58 build/Debug/debug/_ext/100901378/WFParamMsg.o
 .debug_frame   0x000002f0       0x58 build/Debug/debug/_ext/100901378/WFConnectionProfile.o
 .debug_frame   0x00000348       0x70 build/Debug/debug/_ext/100901378/WFDriverRaw.o
 .debug_frame   0x000003b8       0x58 build/Debug/debug/_ext/100901378/WFConsoleIwpriv.o
 .debug_frame   0x00000410       0x58 build/Debug/debug/_ext/100901378/WFTxPower.o
 .debug_frame   0x00000468       0x58 build/Debug/debug/_ext/100901378/WFInit.o
 .debug_frame   0x000004c0       0x70 build/Debug/debug/_ext/100901378/WFDriverCom.o
 .debug_frame   0x00000530       0x58 build/Debug/debug/_ext/100901378/WFConsoleMsgHandler.o
 .debug_frame   0x00000588       0x58 build/Debug/debug/_ext/100901378/WFEventHandler.o
 .debug_frame   0x000005e0       0x58 build/Debug/debug/_ext/100901378/WFConsoleIwconfig.o
 .debug_frame   0x00000638       0x58 build/Debug/debug/_ext/100901378/WFConsoleIfconfig.o
 .debug_frame   0x00000690       0x58 build/Debug/debug/_ext/100901378/WFConnectionAlgorithm.o
 .debug_frame   0x000006e8       0x70 build/Debug/debug/_ext/100901378/WFMac.o
 .debug_frame   0x00000758       0x58 build/Debug/debug/_ext/100901378/WFDataTxRx.o
 .debug_frame   0x000007b0       0x58 build/Debug/debug/_ext/100901378/WFMgmtMsg.o
 .debug_frame   0x00000808       0x58 build/Debug/debug/_ext/100901378/WFConsoleMsgs.o
 .debug_frame   0x00000860      0x1a8 build/Debug/debug/_ext/867694782/TFTPc.o
 .debug_frame   0x00000a08       0x90 build/Debug/debug/_ext/867694782/Announce.o
 .debug_frame   0x00000a98       0x58 build/Debug/debug/_ext/867694782/CAN2TCPBridge.o
 .debug_frame   0x00000af0       0x58 build/Debug/debug/_ext/867694782/FTP.o
 .debug_frame   0x00000b48       0x58 build/Debug/debug/_ext/867694782/ENC28J60.o
 .debug_frame   0x00000ba0       0x58 build/Debug/debug/_ext/867694782/SPIRAM.o
 .debug_frame   0x00000bf8       0x58 build/Debug/debug/_ext/867694782/SNMP.o
 .debug_frame   0x00000c50       0x58 build/Debug/debug/_ext/867694782/Hashes.o
 .debug_frame   0x00000ca8       0x58 build/Debug/debug/_ext/867694782/LCDBlocking.o
 .debug_frame   0x00000d00       0xac build/Debug/debug/_ext/867694782/StackTsk.o
 .debug_frame   0x00000dac      0x110 build/Debug/debug/_ext/867694782/ARP.o
 .debug_frame   0x00000ebc       0x58 build/Debug/debug/_ext/867694782/HTTP.o
 .debug_frame   0x00000f14       0x58 build/Debug/debug/_ext/867694782/SNTP.o
 .debug_frame   0x00000f6c       0x58 build/Debug/debug/_ext/867694782/RSA.o
 .debug_frame   0x00000fc4       0x58 build/Debug/debug/_ext/867694782/UART.o
 .debug_frame   0x0000101c       0x58 build/Debug/debug/_ext/867694782/ZeroconfHelper.o
 .debug_frame   0x00001074       0x58 build/Debug/debug/_ext/867694782/HTTP2.o
 .debug_frame   0x000010cc       0x58 build/Debug/debug/_ext/867694782/ZeroconfMulticastDNS.o
 .debug_frame   0x00001124       0x58 build/Debug/debug/_ext/867694782/NBNS.o
 .debug_frame   0x0000117c       0x58 build/Debug/debug/_ext/867694782/ENCX24J600.o
 .debug_frame   0x000011d4      0x1bc build/Debug/debug/_ext/867694782/BerkeleyAPI.o
 .debug_frame   0x00001390       0x58 build/Debug/debug/_ext/867694782/TCPPerformanceTest.o
 .debug_frame   0x000013e8       0x58 build/Debug/debug/_ext/867694782/UART2TCPBridge.o
 .debug_frame   0x00001440       0x58 build/Debug/debug/_ext/867694782/AutoIP.o
 .debug_frame   0x00001498       0x58 build/Debug/debug/_ext/867694782/DHCPs.o
 .debug_frame   0x000014f0      0x15c build/Debug/debug/_ext/867694782/DHCP.o
 .debug_frame   0x0000164c       0x58 build/Debug/debug/_ext/867694782/Reboot.o
 .debug_frame   0x000016a4       0x58 build/Debug/debug/_ext/867694782/SPIEEPROM.o
 .debug_frame   0x000016fc       0x58 build/Debug/debug/_ext/867694782/SSL.o
 .debug_frame   0x00001754       0x8c build/Debug/debug/_ext/867694782/Delay.o
 .debug_frame   0x000017e0       0x58 build/Debug/debug/_ext/867694782/SPIFlash.o
 .debug_frame   0x00001838       0x58 build/Debug/debug/_ext/867694782/DNSs.o
 .debug_frame   0x00001890       0x58 build/Debug/debug/_ext/867694782/BigInt.o
 .debug_frame   0x000018e8      0x22c build/Debug/debug/_ext/867694782/UDP.o
 .debug_frame   0x00001b14       0x58 build/Debug/debug/_ext/867694782/DNS.o
 .debug_frame   0x00001b6c       0xdc build/Debug/debug/_ext/867694782/ICMP.o
 .debug_frame   0x00001c48      0x2c8 build/Debug/debug/_ext/867694782/ETHPIC32IntMac.o
 .debug_frame   0x00001f10       0x58 build/Debug/debug/_ext/867694782/ETH97J60.o
 .debug_frame   0x00001f68      0x1b0 build/Debug/debug/_ext/867694782/Helpers.o
 .debug_frame   0x00002118       0x58 build/Debug/debug/_ext/867694782/ZeroconfLinkLocal.o
 .debug_frame   0x00002170       0xc8 build/Debug/debug/_ext/867694782/IP.o
 .debug_frame   0x00002238      0x3e4 build/Debug/debug/_ext/867694782/TCP.o
 .debug_frame   0x0000261c       0xc0 build/Debug/debug/_ext/867694782/ETHPIC32ExtPhyDP83848.o
 .debug_frame   0x000026dc       0x58 build/Debug/debug/_ext/867694782/SMTP.o
 .debug_frame   0x00002734      0x114 build/Debug/debug/_ext/867694782/Tick.o
 .debug_frame   0x00002848       0x58 build/Debug/debug/_ext/867694782/Telnet.o
 .debug_frame   0x000028a0      0x188 build/Debug/debug/_ext/867694782/ETHPIC32ExtPhy.o
 .debug_frame   0x00002a28       0x58 build/Debug/debug/_ext/867694782/Random.o
 .debug_frame   0x00002a80       0x58 build/Debug/debug/_ext/867694782/MPFS.o
 .debug_frame   0x00002ad8       0x58 build/Debug/debug/_ext/867694782/MPFS2.o
 .debug_frame   0x00002b30       0x58 build/Debug/debug/_ext/867694782/DynDNS.o
 .debug_frame   0x00002b88       0x58 build/Debug/debug/_ext/867694782/UDPPerformanceTest.o
 .debug_frame   0x00002be0       0x58 build/Debug/debug/_ext/867694782/ARCFOUR.o
 .debug_frame   0x00002c38      0x138 build/Debug/debug/_ext/1472/i2c_support.o
 .debug_frame   0x00002d70       0xe4 build/Debug/debug/_ext/1472/main.o
 .debug_frame   0x00002e54       0x78 build/Debug/debug/_ext/1472/MyTFTP.o
 .debug_frame   0x00002ecc       0xe4 build/Debug/debug/_ext/1472/Settings.o
 .debug_frame   0x00002fb0      0x200 build/Debug/debug/_ext/1472/HodoCrate.o
 .debug_frame   0x000031b0       0x78 build/Debug/debug/_ext/1472/BerkeleyTCPServerDemo.o
 .debug_frame   0x00003228       0x74 build/Debug/debug/_ext/1472/PingDemo.o
 .debug_frame   0x0000329c       0x28 /opt/microchip/mplabc32/v2.02/bin/../lib/gcc/pic32mx/4.5.1/libgcc.a(floatunsisf.o)
 .debug_frame   0x000032c4       0x80 /opt/microchip/mplabc32/v2.02/bin/../lib/gcc/pic32mx/4.5.1/../../../../pic32mx/lib/libdebug.a(db_utils.o)
 .debug_frame   0x00003344       0x20 /opt/microchip/mplabc32/v2.02/bin/../lib/gcc/pic32mx/4.5.1/../../../../pic32mx/lib/libc.a(atoi.o)
 .debug_frame   0x00003364       0x68 /opt/microchip/mplabc32/v2.02/bin/../lib/gcc/pic32mx/4.5.1/../../../../pic32mx/lib/libc.a(malloc.o)
 .debug_frame   0x000033cc       0x48 /opt/microchip/mplabc32/v2.02/bin/../lib/gcc/pic32mx/4.5.1/../../../../pic32mx/lib/libc.a(puts.o)
 .debug_frame   0x00003414       0x30 /opt/microchip/mplabc32/v2.02/bin/../lib/gcc/pic32mx/4.5.1/../../../../pic32mx/lib/libc.a(rand.o)
 .debug_frame   0x00003444       0x2c /opt/microchip/mplabc32/v2.02/bin/../lib/gcc/pic32mx/4.5.1/../../../../pic32mx/lib/libc.a(strtok.o)
 .debug_frame   0x00003470       0x28 /opt/microchip/mplabc32/v2.02/bin/../lib/gcc/pic32mx/4.5.1/../../../../pic32mx/lib/libc.a(printf_cdnopsuxX.eo)
 .debug_frame   0x00003498       0x2c /opt/microchip/mplabc32/v2.02/bin/../lib/gcc/pic32mx/4.5.1/../../../../pic32mx/lib/libc.a(sprintf_cdfFnopsuxX.eo)
 .debug_frame   0x000034c4       0x8c /opt/microchip/mplabc32/v2.02/bin/../lib/gcc/pic32mx/4.5.1/../../../../pic32mx/lib/libc.a(sbrk.o)
 .debug_frame   0x00003550       0x20 /opt/microchip/mplabc32/v2.02/bin/../lib/gcc/pic32mx/4.5.1/../../../../pic32mx/lib/libc.a(default-bootstrap-exception-handler.o)
 .debug_frame   0x00003570       0x20 /opt/microchip/mplabc32/v2.02/bin/../lib/gcc/pic32mx/4.5.1/../../../../pic32mx/lib/libc.a(default-on-reset.o)
 .debug_frame   0x00003590       0x20 /opt/microchip/mplabc32/v2.02/bin/../lib/gcc/pic32mx/4.5.1/../../../../pic32mx/lib/libc.a(default-on-bootstrap.o)
 .debug_frame   0x000035b0       0x2c /opt/microchip/mplabc32/v2.02/bin/../lib/gcc/pic32mx/4.5.1/../../../../pic32mx/lib/libc.a(_fputc_simple.o)
 .debug_frame   0x000035dc       0x2c /opt/microchip/mplabc32/v2.02/bin/../lib/gcc/pic32mx/4.5.1/../../../../pic32mx/lib/libc.a(strcspn.o)
 .debug_frame   0x00003608       0x2c /opt/microchip/mplabc32/v2.02/bin/../lib/gcc/pic32mx/4.5.1/../../../../pic32mx/lib/libc.a(strspn.o)
 .debug_frame   0x00003634       0x58 /opt/microchip/mplabc32/v2.02/bin/../lib/gcc/pic32mx/4.5.1/../../../../pic32mx/lib/libc.a(doprnt_cdfFnopsuxX.eo)
 .debug_frame   0x0000368c       0x28 /opt/microchip/mplabc32/v2.02/bin/../lib/gcc/pic32mx/4.5.1/../../../../pic32mx/lib/libc.a(write.o)
 .debug_frame   0x000036b4       0x28 /opt/microchip/mplabc32/v2.02/bin/../lib/gcc/pic32mx/4.5.1/../../../../pic32mx/lib/libc.a(_flsbuf_simple.o)
 .debug_frame   0x000036dc       0x20 /opt/microchip/mplabc32/v2.02/bin/../lib/gcc/pic32mx/4.5.1/../../../../pic32mx/lib/libc.a(strchr.o)
 .debug_frame   0x000036fc       0x20 /opt/microchip/mplabc32/v2.02/bin/../lib/gcc/pic32mx/4.5.1/../../../../pic32mx/lib/libe.a(_floatdisf.o)
 .debug_frame   0x0000371c       0x20 /opt/microchip/mplabc32/v2.02/bin/../lib/gcc/pic32mx/4.5.1/../../../../pic32mx/lib/libmchp_peripheral.a(read_core_timer_lib.o)
 .debug_frame   0x0000373c       0xb8 /opt/microchip/mplabc32/v2.02/bin/../lib/gcc/pic32mx/4.5.1/../../../../pic32mx/lib/libmchp_peripheral_32MX795F512L.a(eth_ack_packet_lib.o)
 .debug_frame   0x000037f4       0x54 /opt/microchip/mplabc32/v2.02/bin/../lib/gcc/pic32mx/4.5.1/../../../../pic32mx/lib/libmchp_peripheral_32MX795F512L.a(eth_descriptors_add_lib.o)
 .debug_frame   0x00003848       0x28 /opt/microchip/mplabc32/v2.02/bin/../lib/gcc/pic32mx/4.5.1/../../../../pic32mx/lib/libmchp_peripheral_32MX795F512L.a(eth_init_lib.o)
 .debug_frame   0x00003870       0x20 /opt/microchip/mplabc32/v2.02/bin/../lib/gcc/pic32mx/4.5.1/../../../../pic32mx/lib/libmchp_peripheral_32MX795F512L.a(eth_mac_open_lib.o)
 .debug_frame   0x00003890       0x50 /opt/microchip/mplabc32/v2.02/bin/../lib/gcc/pic32mx/4.5.1/../../../../pic32mx/lib/libmchp_peripheral_32MX795F512L.a(eth_mac_set_address_max_lib.o)
 .debug_frame   0x000038e0       0x28 /opt/microchip/mplabc32/v2.02/bin/../lib/gcc/pic32mx/4.5.1/../../../../pic32mx/lib/libmchp_peripheral_32MX795F512L.a(eth_rx_buffers_append_lib.o)
 .debug_frame   0x00003908       0x70 /opt/microchip/mplabc32/v2.02/bin/../lib/gcc/pic32mx/4.5.1/../../../../pic32mx/lib/libmchp_peripheral_32MX795F512L.a(eth_rx_filters_lib.o)
 .debug_frame   0x00003978       0x3c /opt/microchip/mplabc32/v2.02/bin/../lib/gcc/pic32mx/4.5.1/../../../../pic32mx/lib/libmchp_peripheral_32MX795F512L.a(eth_rx_get_packet_lib.o)
 .debug_frame   0x000039b4       0x20 /opt/microchip/mplabc32/v2.02/bin/../lib/gcc/pic32mx/4.5.1/../../../../pic32mx/lib/libmchp_peripheral_32MX795F512L.a(eth_rx_set_buffer_size_lib.o)
 .debug_frame   0x000039d4       0x8c /opt/microchip/mplabc32/v2.02/bin/../lib/gcc/pic32mx/4.5.1/../../../../pic32mx/lib/libmchp_peripheral_32MX795F512L.a(eth_tx_packet_lib.o)
 .debug_frame   0x00003a60       0x20 /opt/microchip/mplabc32/v2.02/bin/../lib/gcc/pic32mx/4.5.1/../../../../pic32mx/lib/libmchp_peripheral_32MX795F512L.a(_eth_append_busy_list_lib.o)
 .debug_frame   0x00003a80       0x70 /opt/microchip/mplabc32/v2.02/bin/../lib/gcc/pic32mx/4.5.1/../../../../pic32mx/lib/libmchp_peripheral_32MX795F512L.a(eth_miim_access.o)
 .debug_frame   0x00003af0       0x70 /opt/microchip/mplabc32/v2.02/bin/../lib/gcc/pic32mx/4.5.1/../../../../pic32mx/lib/libmchp_peripheral_32MX795F512L.a(eth_miim_legacy.o)
 .debug_frame   0x00003b60       0x28 /opt/microchip/mplabc32/v2.02/bin/../lib/gcc/pic32mx/4.5.1/../../../../pic32mx/lib/libmchp_peripheral_32MX795F512L.a(soft_reset_lib.o)
 .debug_frame   0x00003b88       0x30 /opt/microchip/mplabc32/v2.02/bin/../lib/gcc/pic32mx/4.5.1/../../../../pic32mx/lib/libmchp_peripheral_32MX795F512L.a(pcache.o)
 .debug_frame   0x00003bb8       0x20 /opt/microchip/mplabc32/v2.02/bin/../lib/gcc/pic32mx/4.5.1/../../../../pic32mx/lib/libmchp_peripheral_32MX795F512L.a(int_disable_interrupts_lib.o)
 .debug_frame   0x00003bd8       0x20 /opt/microchip/mplabc32/v2.02/bin/../lib/gcc/pic32mx/4.5.1/../../../../pic32mx/lib/libmchp_peripheral_32MX795F512L.a(int_restore_interrupts_lib.o)
 .debug_frame   0x00003bf8       0x28 /opt/microchip/mplabc32/v2.02/bin/../lib/gcc/pic32mx/4.5.1/../../../../pic32mx/lib/libmchp_peripheral_32MX795F512L.a(int_enable_mv_int_lib.o)
 .debug_frame   0x00003c20       0xa0 /opt/microchip/mplabc32/v2.02/bin/../lib/gcc/pic32mx/4.5.1/../../../../pic32mx/lib/libmchp_peripheral_32MX795F512L.a(int_tbl_lib.o)
 .debug_frame   0x00003cc0       0x28 /opt/microchip/mplabc32/v2.02/bin/../lib/gcc/pic32mx/4.5.1/../../../../pic32mx/lib/libmchp_peripheral_32MX795F512L.a(nvm_erase_page_lib.o)
 .debug_frame   0x00003ce8       0x28 /opt/microchip/mplabc32/v2.02/bin/../lib/gcc/pic32mx/4.5.1/../../../../pic32mx/lib/libmchp_peripheral_32MX795F512L.a(nvm_operation_lib.o)
 .debug_frame   0x00003d10       0x28 /opt/microchip/mplabc32/v2.02/bin/../lib/gcc/pic32mx/4.5.1/../../../../pic32mx/lib/libmchp_peripheral_32MX795F512L.a(nvm_write_row_lib.o)
 .debug_frame   0x00003d38       0x20 /opt/microchip/mplabc32/v2.02/bin/../lib/gcc/pic32mx/4.5.1/../../../../pic32mx/lib/libmchp_peripheral_32MX795F512L.a(port_set_pins_digital_in_lib.o)
 .debug_frame   0x00003d58       0x20 /opt/microchip/mplabc32/v2.02/bin/../lib/gcc/pic32mx/4.5.1/../../../../pic32mx/lib/libmchp_peripheral_32MX795F512L.a(port_set_pins_digital_out_lib.o)
 .debug_frame   0x00003d78       0x20 /opt/microchip/mplabc32/v2.02/bin/../lib/gcc/pic32mx/4.5.1/../../../../pic32mx/lib/libmchp_peripheral_32MX795F512L.a(I2CAcknowledgeByte.o)
 .debug_frame   0x00003d98       0x20 /opt/microchip/mplabc32/v2.02/bin/../lib/gcc/pic32mx/4.5.1/../../../../pic32mx/lib/libmchp_peripheral_32MX795F512L.a(I2CBusIsIdle.o)
 .debug_frame   0x00003db8       0x20 /opt/microchip/mplabc32/v2.02/bin/../lib/gcc/pic32mx/4.5.1/../../../../pic32mx/lib/libmchp_peripheral_32MX795F512L.a(I2CByteWasAcknowledged.o)
 .debug_frame   0x00003dd8       0x20 /opt/microchip/mplabc32/v2.02/bin/../lib/gcc/pic32mx/4.5.1/../../../../pic32mx/lib/libmchp_peripheral_32MX795F512L.a(I2CClearStatus.o)
 .debug_frame   0x00003df8       0x20 /opt/microchip/mplabc32/v2.02/bin/../lib/gcc/pic32mx/4.5.1/../../../../pic32mx/lib/libmchp_peripheral_32MX795F512L.a(I2CConfigure.o)
 .debug_frame   0x00003e18       0x20 /opt/microchip/mplabc32/v2.02/bin/../lib/gcc/pic32mx/4.5.1/../../../../pic32mx/lib/libmchp_peripheral_32MX795F512L.a(I2CEnable.o)
 .debug_frame   0x00003e38       0x20 /opt/microchip/mplabc32/v2.02/bin/../lib/gcc/pic32mx/4.5.1/../../../../pic32mx/lib/libmchp_peripheral_32MX795F512L.a(I2CGetByte.o)
 .debug_frame   0x00003e58       0x20 /opt/microchip/mplabc32/v2.02/bin/../lib/gcc/pic32mx/4.5.1/../../../../pic32mx/lib/libmchp_peripheral_32MX795F512L.a(I2CGetStatus.o)
 .debug_frame   0x00003e78       0x20 /opt/microchip/mplabc32/v2.02/bin/../lib/gcc/pic32mx/4.5.1/../../../../pic32mx/lib/libmchp_peripheral_32MX795F512L.a(I2CReceivedDataIsAvailable.o)
 .debug_frame   0x00003e98       0x20 /opt/microchip/mplabc32/v2.02/bin/../lib/gcc/pic32mx/4.5.1/../../../../pic32mx/lib/libmchp_peripheral_32MX795F512L.a(I2CReceiverEnable.o)
 .debug_frame   0x00003eb8       0x20 /opt/microchip/mplabc32/v2.02/bin/../lib/gcc/pic32mx/4.5.1/../../../../pic32mx/lib/libmchp_peripheral_32MX795F512L.a(I2CRepeatStart.o)
 .debug_frame   0x00003ed8       0x20 /opt/microchip/mplabc32/v2.02/bin/../lib/gcc/pic32mx/4.5.1/../../../../pic32mx/lib/libmchp_peripheral_32MX795F512L.a(I2CSendByte.o)
 .debug_frame   0x00003ef8       0x20 /opt/microchip/mplabc32/v2.02/bin/../lib/gcc/pic32mx/4.5.1/../../../../pic32mx/lib/libmchp_peripheral_32MX795F512L.a(I2CSetFrequency.o)
 .debug_frame   0x00003f18       0x20 /opt/microchip/mplabc32/v2.02/bin/../lib/gcc/pic32mx/4.5.1/../../../../pic32mx/lib/libmchp_peripheral_32MX795F512L.a(I2CStart.o)
 .debug_frame   0x00003f38       0x20 /opt/microchip/mplabc32/v2.02/bin/../lib/gcc/pic32mx/4.5.1/../../../../pic32mx/lib/libmchp_peripheral_32MX795F512L.a(I2CStop.o)
 .debug_frame   0x00003f58       0x20 /opt/microchip/mplabc32/v2.02/bin/../lib/gcc/pic32mx/4.5.1/../../../../pic32mx/lib/libmchp_peripheral_32MX795F512L.a(I2CTransmissionHasCompleted.o)
 .debug_frame   0x00003f78       0x20 /opt/microchip/mplabc32/v2.02/bin/../lib/gcc/pic32mx/4.5.1/../../../../pic32mx/lib/libmchp_peripheral_32MX795F512L.a(I2CTransmitterIsReady.o)
 .debug_frame   0x00003f98       0x20 /opt/microchip/mplabc32/v2.02/bin/../lib/gcc/pic32mx/4.5.1/../../../../pic32mx/lib/libmchp_peripheral_32MX795F512L.a(int_enable_interrupts_lib.o)
 .debug_frame   0x00003fb8       0x2c /opt/microchip/mplabc32/v2.02/bin/../lib/gcc/pic32mx/4.5.1/../../../../pic32mx/lib/libc.a(calloc.o)
 .debug_frame   0x00003fe4       0x2c /opt/microchip/mplabc32/v2.02/bin/../lib/gcc/pic32mx/4.5.1/libgcc.a(_floatundisf.o)

.debug_str      0x00000000     0x67fe
 *(.debug_str)
 .debug_str     0x00000000      0x12f build/Debug/debug/_ext/100901378/WFScan.o
 .debug_str     0x0000012f      0x12f build/Debug/debug/_ext/100901378/WF_Spi.o
 .debug_str     0x0000025e      0x12f build/Debug/debug/_ext/100901378/WFEasyConfig.o
 .debug_str     0x0000038d      0x12f build/Debug/debug/_ext/100901378/WFConsole.o
 .debug_str     0x000004bc      0x12f build/Debug/debug/_ext/100901378/WF_Eint.o
 .debug_str     0x000005eb      0x12f build/Debug/debug/_ext/100901378/WFConnectionManager.o
 .debug_str     0x0000071a      0x12f build/Debug/debug/_ext/100901378/WFPowerSave.o
 .debug_str     0x00000849      0x12f build/Debug/debug/_ext/100901378/WFParamMsg.o
 .debug_str     0x00000978      0x12f build/Debug/debug/_ext/100901378/WFConnectionProfile.o
 .debug_str     0x00000aa7      0x12f build/Debug/debug/_ext/100901378/WFDriverRaw.o
 .debug_str     0x00000bd6      0x12f build/Debug/debug/_ext/100901378/WFConsoleIwpriv.o
 .debug_str     0x00000d05      0x12f build/Debug/debug/_ext/100901378/WFTxPower.o
 .debug_str     0x00000e34      0x12f build/Debug/debug/_ext/100901378/WFInit.o
 .debug_str     0x00000f63      0x12f build/Debug/debug/_ext/100901378/WFDriverCom.o
 .debug_str     0x00001092      0x12f build/Debug/debug/_ext/100901378/WFConsoleMsgHandler.o
 .debug_str     0x000011c1      0x12f build/Debug/debug/_ext/100901378/WFEventHandler.o
 .debug_str     0x000012f0      0x12f build/Debug/debug/_ext/100901378/WFConsoleIwconfig.o
 .debug_str     0x0000141f      0x12f build/Debug/debug/_ext/100901378/WFConsoleIfconfig.o
 .debug_str     0x0000154e      0x12f build/Debug/debug/_ext/100901378/WFConnectionAlgorithm.o
 .debug_str     0x0000167d      0x12f build/Debug/debug/_ext/100901378/WFMac.o
 .debug_str     0x000017ac      0x12f build/Debug/debug/_ext/100901378/WFDataTxRx.o
 .debug_str     0x000018db      0x12f build/Debug/debug/_ext/100901378/WFMgmtMsg.o
 .debug_str     0x00001a0a      0x12f build/Debug/debug/_ext/100901378/WFConsoleMsgs.o
 .debug_str     0x00001b39      0x172 build/Debug/debug/_ext/867694782/TFTPc.o
 .debug_str     0x00001cab      0x15b build/Debug/debug/_ext/867694782/Announce.o
 .debug_str     0x00001e06      0x12f build/Debug/debug/_ext/867694782/CAN2TCPBridge.o
 .debug_str     0x00001f35      0x12f build/Debug/debug/_ext/867694782/FTP.o
 .debug_str     0x00002064      0x12f build/Debug/debug/_ext/867694782/ENC28J60.o
 .debug_str     0x00002193      0x12f build/Debug/debug/_ext/867694782/SPIRAM.o
 .debug_str     0x000022c2      0x12f build/Debug/debug/_ext/867694782/SNMP.o
 .debug_str     0x000023f1      0x12f build/Debug/debug/_ext/867694782/Hashes.o
 .debug_str     0x00002520      0x12f build/Debug/debug/_ext/867694782/LCDBlocking.o
 .debug_str     0x0000264f      0x144 build/Debug/debug/_ext/867694782/StackTsk.o
 .debug_str     0x00002793      0x16a build/Debug/debug/_ext/867694782/ARP.o
 .debug_str     0x000028fd      0x12f build/Debug/debug/_ext/867694782/HTTP.o
 .debug_str     0x00002a2c      0x12f build/Debug/debug/_ext/867694782/SNTP.o
 .debug_str     0x00002b5b      0x12f build/Debug/debug/_ext/867694782/RSA.o
 .debug_str     0x00002c8a      0x12f build/Debug/debug/_ext/867694782/UART.o
 .debug_str     0x00002db9      0x12f build/Debug/debug/_ext/867694782/ZeroconfHelper.o
 .debug_str     0x00002ee8      0x12f build/Debug/debug/_ext/867694782/HTTP2.o
 .debug_str     0x00003017      0x12f build/Debug/debug/_ext/867694782/ZeroconfMulticastDNS.o
 .debug_str     0x00003146      0x12f build/Debug/debug/_ext/867694782/NBNS.o
 .debug_str     0x00003275      0x12f build/Debug/debug/_ext/867694782/ENCX24J600.o
 .debug_str     0x000033a4      0x189 build/Debug/debug/_ext/867694782/BerkeleyAPI.o
 .debug_str     0x0000352d      0x12f build/Debug/debug/_ext/867694782/TCPPerformanceTest.o
 .debug_str     0x0000365c      0x12f build/Debug/debug/_ext/867694782/UART2TCPBridge.o
 .debug_str     0x0000378b      0x12f build/Debug/debug/_ext/867694782/AutoIP.o
 .debug_str     0x000038ba      0x12f build/Debug/debug/_ext/867694782/DHCPs.o
 .debug_str     0x000039e9      0x177 build/Debug/debug/_ext/867694782/DHCP.o
 .debug_str     0x00003b60      0x12f build/Debug/debug/_ext/867694782/Reboot.o
 .debug_str     0x00003c8f      0x12f build/Debug/debug/_ext/867694782/SPIEEPROM.o
 .debug_str     0x00003dbe      0x12f build/Debug/debug/_ext/867694782/SSL.o
 .debug_str     0x00003eed      0x12f build/Debug/debug/_ext/867694782/Delay.o
 .debug_str     0x0000401c      0x12f build/Debug/debug/_ext/867694782/SPIFlash.o
 .debug_str     0x0000414b      0x12f build/Debug/debug/_ext/867694782/DNSs.o
 .debug_str     0x0000427a      0x12f build/Debug/debug/_ext/867694782/BigInt.o
 .debug_str     0x000043a9      0x1a3 build/Debug/debug/_ext/867694782/UDP.o
 .debug_str     0x0000454c      0x12f build/Debug/debug/_ext/867694782/DNS.o
 .debug_str     0x0000467b      0x12f build/Debug/debug/_ext/867694782/ICMP.o
 .debug_str     0x000047aa      0x1d9 build/Debug/debug/_ext/867694782/ETHPIC32IntMac.o
 .debug_str     0x00004983      0x12f build/Debug/debug/_ext/867694782/ETH97J60.o
 .debug_str     0x00004ab2      0x142 build/Debug/debug/_ext/867694782/Helpers.o
 .debug_str     0x00004bf4      0x12f build/Debug/debug/_ext/867694782/ZeroconfLinkLocal.o
 .debug_str     0x00004d23      0x142 build/Debug/debug/_ext/867694782/IP.o
 .debug_str     0x00004e65      0x1fa build/Debug/debug/_ext/867694782/TCP.o
 .debug_str     0x0000505f      0x12f build/Debug/debug/_ext/867694782/ETHPIC32ExtPhyDP83848.o
 .debug_str     0x0000518e      0x12f build/Debug/debug/_ext/867694782/SMTP.o
 .debug_str     0x000052bd      0x14b build/Debug/debug/_ext/867694782/Tick.o
 .debug_str     0x00005408      0x12f build/Debug/debug/_ext/867694782/Telnet.o
 .debug_str     0x00005537      0x1bd build/Debug/debug/_ext/867694782/ETHPIC32ExtPhy.o
 .debug_str     0x000056f4      0x12f build/Debug/debug/_ext/867694782/Random.o
 .debug_str     0x00005823      0x12f build/Debug/debug/_ext/867694782/MPFS.o
 .debug_str     0x00005952      0x12f build/Debug/debug/_ext/867694782/MPFS2.o
 .debug_str     0x00005a81      0x12f build/Debug/debug/_ext/867694782/DynDNS.o
 .debug_str     0x00005bb0      0x12f build/Debug/debug/_ext/867694782/UDPPerformanceTest.o
 .debug_str     0x00005cdf      0x12f build/Debug/debug/_ext/867694782/ARCFOUR.o
 .debug_str     0x00005e0e      0x137 build/Debug/debug/_ext/1472/i2c_support.o
 .debug_str     0x00005f45      0x1fe build/Debug/debug/_ext/1472/main.o
 .debug_str     0x00006143      0x146 build/Debug/debug/_ext/1472/MyTFTP.o
 .debug_str     0x00006289      0x15a build/Debug/debug/_ext/1472/Settings.o
 .debug_str     0x000063e3      0x1a0 build/Debug/debug/_ext/1472/HodoCrate.o
 .debug_str     0x00006583      0x138 build/Debug/debug/_ext/1472/BerkeleyTCPServerDemo.o
 .debug_str     0x000066bb      0x143 build/Debug/debug/_ext/1472/PingDemo.o
 .debug_str     0x000067fe        0x0 /opt/microchip/mplabc32/v2.02/bin/../lib/gcc/pic32mx/4.5.1/libgcc.a(_udivdi3.o)
 .debug_str     0x000067fe        0x0 /opt/microchip/mplabc32/v2.02/bin/../lib/gcc/pic32mx/4.5.1/libgcc.a(floatunsisf.o)
 .debug_str     0x000067fe        0x0 /opt/microchip/mplabc32/v2.02/bin/../lib/gcc/pic32mx/4.5.1/../../../../pic32mx/lib/libdebug.a(db_utils.o)
 .debug_str     0x000067fe        0x0 /opt/microchip/mplabc32/v2.02/bin/../lib/gcc/pic32mx/4.5.1/../../../../pic32mx/lib/libc.a(atoi.o)
 .debug_str     0x000067fe        0x0 /opt/microchip/mplabc32/v2.02/bin/../lib/gcc/pic32mx/4.5.1/../../../../pic32mx/lib/libc.a(c32_uart.o)
 .debug_str     0x000067fe        0x0 /opt/microchip/mplabc32/v2.02/bin/../lib/gcc/pic32mx/4.5.1/../../../../pic32mx/lib/libc.a(ctype.o)
 .debug_str     0x000067fe        0x0 /opt/microchip/mplabc32/v2.02/bin/../lib/gcc/pic32mx/4.5.1/../../../../pic32mx/lib/libc.a(malloc.o)
 .debug_str     0x000067fe        0x0 /opt/microchip/mplabc32/v2.02/bin/../lib/gcc/pic32mx/4.5.1/../../../../pic32mx/lib/libc.a(puts.o)
 .debug_str     0x000067fe        0x0 /opt/microchip/mplabc32/v2.02/bin/../lib/gcc/pic32mx/4.5.1/../../../../pic32mx/lib/libc.a(rand.o)
 .debug_str     0x000067fe        0x0 /opt/microchip/mplabc32/v2.02/bin/../lib/gcc/pic32mx/4.5.1/../../../../pic32mx/lib/libc.a(strtok.o)
 .debug_str     0x000067fe        0x0 /opt/microchip/mplabc32/v2.02/bin/../lib/gcc/pic32mx/4.5.1/../../../../pic32mx/lib/libc.a(printf_cdnopsuxX.eo)
 .debug_str     0x000067fe        0x0 /opt/microchip/mplabc32/v2.02/bin/../lib/gcc/pic32mx/4.5.1/../../../../pic32mx/lib/libc.a(sprintf_cdfFnopsuxX.eo)
 .debug_str     0x000067fe        0x0 /opt/microchip/mplabc32/v2.02/bin/../lib/gcc/pic32mx/4.5.1/../../../../pic32mx/lib/libc.a(sbrk.o)
 .debug_str     0x000067fe        0x0 /opt/microchip/mplabc32/v2.02/bin/../lib/gcc/pic32mx/4.5.1/../../../../pic32mx/lib/libc.a(default-bootstrap-exception-handler.o)
 .debug_str     0x000067fe        0x0 /opt/microchip/mplabc32/v2.02/bin/../lib/gcc/pic32mx/4.5.1/../../../../pic32mx/lib/libc.a(default-on-reset.o)
 .debug_str     0x000067fe        0x0 /opt/microchip/mplabc32/v2.02/bin/../lib/gcc/pic32mx/4.5.1/../../../../pic32mx/lib/libc.a(default-on-bootstrap.o)
 .debug_str     0x000067fe        0x0 /opt/microchip/mplabc32/v2.02/bin/../lib/gcc/pic32mx/4.5.1/../../../../pic32mx/lib/libc.a(_iob.o)
 .debug_str     0x000067fe        0x0 /opt/microchip/mplabc32/v2.02/bin/../lib/gcc/pic32mx/4.5.1/../../../../pic32mx/lib/libc.a(_fputc_simple.o)
 .debug_str     0x000067fe        0x0 /opt/microchip/mplabc32/v2.02/bin/../lib/gcc/pic32mx/4.5.1/../../../../pic32mx/lib/libc.a(errno.o)
 .debug_str     0x000067fe        0x0 /opt/microchip/mplabc32/v2.02/bin/../lib/gcc/pic32mx/4.5.1/../../../../pic32mx/lib/libc.a(strcspn.o)
 .debug_str     0x000067fe        0x0 /opt/microchip/mplabc32/v2.02/bin/../lib/gcc/pic32mx/4.5.1/../../../../pic32mx/lib/libc.a(strspn.o)
 .debug_str     0x000067fe        0x0 /opt/microchip/mplabc32/v2.02/bin/../lib/gcc/pic32mx/4.5.1/../../../../pic32mx/lib/libc.a(doprnt_cdfFnopsuxX.eo)
 .debug_str     0x000067fe        0x0 /opt/microchip/mplabc32/v2.02/bin/../lib/gcc/pic32mx/4.5.1/../../../../pic32mx/lib/libc.a(write.o)
 .debug_str     0x000067fe        0x0 /opt/microchip/mplabc32/v2.02/bin/../lib/gcc/pic32mx/4.5.1/../../../../pic32mx/lib/libc.a(_flsbuf_simple.o)
 .debug_str     0x000067fe        0x0 /opt/microchip/mplabc32/v2.02/bin/../lib/gcc/pic32mx/4.5.1/../../../../pic32mx/lib/libc.a(powers.o)
 .debug_str     0x000067fe        0x0 /opt/microchip/mplabc32/v2.02/bin/../lib/gcc/pic32mx/4.5.1/../../../../pic32mx/lib/libc.a(strchr.o)
 .debug_str     0x000067fe        0x0 /opt/microchip/mplabc32/v2.02/bin/../lib/gcc/pic32mx/4.5.1/../../../../pic32mx/lib/libe.a(_floatdisf.o)
 .debug_str     0x000067fe        0x0 /opt/microchip/mplabc32/v2.02/bin/../lib/gcc/pic32mx/4.5.1/../../../../pic32mx/lib/libmchp_peripheral.a(read_core_timer_lib.o)
 .debug_str     0x000067fe        0x0 /opt/microchip/mplabc32/v2.02/bin/../lib/gcc/pic32mx/4.5.1/../../../../pic32mx/lib/libmchp_peripheral_32MX795F512L.a(eth_ack_packet_lib.o)
 .debug_str     0x000067fe        0x0 /opt/microchip/mplabc32/v2.02/bin/../lib/gcc/pic32mx/4.5.1/../../../../pic32mx/lib/libmchp_peripheral_32MX795F512L.a(eth_descriptors_add_lib.o)
 .debug_str     0x000067fe        0x0 /opt/microchip/mplabc32/v2.02/bin/../lib/gcc/pic32mx/4.5.1/../../../../pic32mx/lib/libmchp_peripheral_32MX795F512L.a(eth_init_lib.o)
 .debug_str     0x000067fe        0x0 /opt/microchip/mplabc32/v2.02/bin/../lib/gcc/pic32mx/4.5.1/../../../../pic32mx/lib/libmchp_peripheral_32MX795F512L.a(eth_mac_open_lib.o)
 .debug_str     0x000067fe        0x0 /opt/microchip/mplabc32/v2.02/bin/../lib/gcc/pic32mx/4.5.1/../../../../pic32mx/lib/libmchp_peripheral_32MX795F512L.a(eth_mac_set_address_max_lib.o)
 .debug_str     0x000067fe        0x0 /opt/microchip/mplabc32/v2.02/bin/../lib/gcc/pic32mx/4.5.1/../../../../pic32mx/lib/libmchp_peripheral_32MX795F512L.a(eth_rx_buffers_append_lib.o)
 .debug_str     0x000067fe        0x0 /opt/microchip/mplabc32/v2.02/bin/../lib/gcc/pic32mx/4.5.1/../../../../pic32mx/lib/libmchp_peripheral_32MX795F512L.a(eth_rx_filters_lib.o)
 .debug_str     0x000067fe        0x0 /opt/microchip/mplabc32/v2.02/bin/../lib/gcc/pic32mx/4.5.1/../../../../pic32mx/lib/libmchp_peripheral_32MX795F512L.a(eth_rx_get_packet_lib.o)
 .debug_str     0x000067fe        0x0 /opt/microchip/mplabc32/v2.02/bin/../lib/gcc/pic32mx/4.5.1/../../../../pic32mx/lib/libmchp_peripheral_32MX795F512L.a(eth_rx_set_buffer_size_lib.o)
 .debug_str     0x000067fe        0x0 /opt/microchip/mplabc32/v2.02/bin/../lib/gcc/pic32mx/4.5.1/../../../../pic32mx/lib/libmchp_peripheral_32MX795F512L.a(eth_tx_packet_lib.o)
 .debug_str     0x000067fe        0x0 /opt/microchip/mplabc32/v2.02/bin/../lib/gcc/pic32mx/4.5.1/../../../../pic32mx/lib/libmchp_peripheral_32MX795F512L.a(_eth_append_busy_list_lib.o)
 .debug_str     0x000067fe        0x0 /opt/microchip/mplabc32/v2.02/bin/../lib/gcc/pic32mx/4.5.1/../../../../pic32mx/lib/libmchp_peripheral_32MX795F512L.a(eth_miim_access.o)
 .debug_str     0x000067fe        0x0 /opt/microchip/mplabc32/v2.02/bin/../lib/gcc/pic32mx/4.5.1/../../../../pic32mx/lib/libmchp_peripheral_32MX795F512L.a(eth_miim_legacy.o)
 .debug_str     0x000067fe        0x0 /opt/microchip/mplabc32/v2.02/bin/../lib/gcc/pic32mx/4.5.1/../../../../pic32mx/lib/libmchp_peripheral_32MX795F512L.a(soft_reset_lib.o)
 .debug_str     0x000067fe        0x0 /opt/microchip/mplabc32/v2.02/bin/../lib/gcc/pic32mx/4.5.1/../../../../pic32mx/lib/libmchp_peripheral_32MX795F512L.a(pcache.o)
 .debug_str     0x000067fe        0x0 /opt/microchip/mplabc32/v2.02/bin/../lib/gcc/pic32mx/4.5.1/../../../../pic32mx/lib/libmchp_peripheral_32MX795F512L.a(int_disable_interrupts_lib.o)
 .debug_str     0x000067fe        0x0 /opt/microchip/mplabc32/v2.02/bin/../lib/gcc/pic32mx/4.5.1/../../../../pic32mx/lib/libmchp_peripheral_32MX795F512L.a(int_restore_interrupts_lib.o)
 .debug_str     0x000067fe        0x0 /opt/microchip/mplabc32/v2.02/bin/../lib/gcc/pic32mx/4.5.1/../../../../pic32mx/lib/libmchp_peripheral_32MX795F512L.a(int_enable_mv_int_lib.o)
 .debug_str     0x000067fe        0x0 /opt/microchip/mplabc32/v2.02/bin/../lib/gcc/pic32mx/4.5.1/../../../../pic32mx/lib/libmchp_peripheral_32MX795F512L.a(int_tbl_lib.o)
 .debug_str     0x000067fe        0x0 /opt/microchip/mplabc32/v2.02/bin/../lib/gcc/pic32mx/4.5.1/../../../../pic32mx/lib/libmchp_peripheral_32MX795F512L.a(nvm_erase_page_lib.o)
 .debug_str     0x000067fe        0x0 /opt/microchip/mplabc32/v2.02/bin/../lib/gcc/pic32mx/4.5.1/../../../../pic32mx/lib/libmchp_peripheral_32MX795F512L.a(nvm_operation_lib.o)
 .debug_str     0x000067fe        0x0 /opt/microchip/mplabc32/v2.02/bin/../lib/gcc/pic32mx/4.5.1/../../../../pic32mx/lib/libmchp_peripheral_32MX795F512L.a(nvm_write_row_lib.o)
 .debug_str     0x000067fe        0x0 /opt/microchip/mplabc32/v2.02/bin/../lib/gcc/pic32mx/4.5.1/../../../../pic32mx/lib/libmchp_peripheral_32MX795F512L.a(port_set_pins_digital_in_lib.o)
 .debug_str     0x000067fe        0x0 /opt/microchip/mplabc32/v2.02/bin/../lib/gcc/pic32mx/4.5.1/../../../../pic32mx/lib/libmchp_peripheral_32MX795F512L.a(port_set_pins_digital_out_lib.o)
 .debug_str     0x000067fe        0x0 /opt/microchip/mplabc32/v2.02/bin/../lib/gcc/pic32mx/4.5.1/../../../../pic32mx/lib/libmchp_peripheral_32MX795F512L.a(_ports_tbl_libp.o)
 .debug_str     0x000067fe        0x0 /opt/microchip/mplabc32/v2.02/bin/../lib/gcc/pic32mx/4.5.1/../../../../pic32mx/lib/libmchp_peripheral_32MX795F512L.a(I2CAcknowledgeByte.o)
 .debug_str     0x000067fe        0x0 /opt/microchip/mplabc32/v2.02/bin/../lib/gcc/pic32mx/4.5.1/../../../../pic32mx/lib/libmchp_peripheral_32MX795F512L.a(I2CBusIsIdle.o)
 .debug_str     0x000067fe        0x0 /opt/microchip/mplabc32/v2.02/bin/../lib/gcc/pic32mx/4.5.1/../../../../pic32mx/lib/libmchp_peripheral_32MX795F512L.a(I2CByteWasAcknowledged.o)
 .debug_str     0x000067fe        0x0 /opt/microchip/mplabc32/v2.02/bin/../lib/gcc/pic32mx/4.5.1/../../../../pic32mx/lib/libmchp_peripheral_32MX795F512L.a(I2CClearStatus.o)
 .debug_str     0x000067fe        0x0 /opt/microchip/mplabc32/v2.02/bin/../lib/gcc/pic32mx/4.5.1/../../../../pic32mx/lib/libmchp_peripheral_32MX795F512L.a(I2CConfigure.o)
 .debug_str     0x000067fe        0x0 /opt/microchip/mplabc32/v2.02/bin/../lib/gcc/pic32mx/4.5.1/../../../../pic32mx/lib/libmchp_peripheral_32MX795F512L.a(I2CEnable.o)
 .debug_str     0x000067fe        0x0 /opt/microchip/mplabc32/v2.02/bin/../lib/gcc/pic32mx/4.5.1/../../../../pic32mx/lib/libmchp_peripheral_32MX795F512L.a(I2CGetByte.o)
 .debug_str     0x000067fe        0x0 /opt/microchip/mplabc32/v2.02/bin/../lib/gcc/pic32mx/4.5.1/../../../../pic32mx/lib/libmchp_peripheral_32MX795F512L.a(I2CGetStatus.o)
 .debug_str     0x000067fe        0x0 /opt/microchip/mplabc32/v2.02/bin/../lib/gcc/pic32mx/4.5.1/../../../../pic32mx/lib/libmchp_peripheral_32MX795F512L.a(I2CReceivedDataIsAvailable.o)
 .debug_str     0x000067fe        0x0 /opt/microchip/mplabc32/v2.02/bin/../lib/gcc/pic32mx/4.5.1/../../../../pic32mx/lib/libmchp_peripheral_32MX795F512L.a(I2CReceiverEnable.o)
 .debug_str     0x000067fe        0x0 /opt/microchip/mplabc32/v2.02/bin/../lib/gcc/pic32mx/4.5.1/../../../../pic32mx/lib/libmchp_peripheral_32MX795F512L.a(I2CRepeatStart.o)
 .debug_str     0x000067fe        0x0 /opt/microchip/mplabc32/v2.02/bin/../lib/gcc/pic32mx/4.5.1/../../../../pic32mx/lib/libmchp_peripheral_32MX795F512L.a(I2CSendByte.o)
 .debug_str     0x000067fe        0x0 /opt/microchip/mplabc32/v2.02/bin/../lib/gcc/pic32mx/4.5.1/../../../../pic32mx/lib/libmchp_peripheral_32MX795F512L.a(I2CSetFrequency.o)
 .debug_str     0x000067fe        0x0 /opt/microchip/mplabc32/v2.02/bin/../lib/gcc/pic32mx/4.5.1/../../../../pic32mx/lib/libmchp_peripheral_32MX795F512L.a(I2CStart.o)
 .debug_str     0x000067fe        0x0 /opt/microchip/mplabc32/v2.02/bin/../lib/gcc/pic32mx/4.5.1/../../../../pic32mx/lib/libmchp_peripheral_32MX795F512L.a(I2CStop.o)
 .debug_str     0x000067fe        0x0 /opt/microchip/mplabc32/v2.02/bin/../lib/gcc/pic32mx/4.5.1/../../../../pic32mx/lib/libmchp_peripheral_32MX795F512L.a(I2CTransmissionHasCompleted.o)
 .debug_str     0x000067fe        0x0 /opt/microchip/mplabc32/v2.02/bin/../lib/gcc/pic32mx/4.5.1/../../../../pic32mx/lib/libmchp_peripheral_32MX795F512L.a(I2CTransmitterIsReady.o)
 .debug_str     0x000067fe        0x0 /opt/microchip/mplabc32/v2.02/bin/../lib/gcc/pic32mx/4.5.1/../../../../pic32mx/lib/libmchp_peripheral_32MX795F512L.a(int_enable_interrupts_lib.o)
 .debug_str     0x000067fe        0x0 /opt/microchip/mplabc32/v2.02/bin/../lib/gcc/pic32mx/4.5.1/../../../../pic32mx/lib/libmchp_peripheral_32MX795F512L.a(I2CPrivate.o)
 .debug_str     0x000067fe        0x0 /opt/microchip/mplabc32/v2.02/bin/../lib/gcc/pic32mx/4.5.1/../../../../pic32mx/lib/libc.a(calloc.o)
 .debug_str     0x000067fe        0x0 /opt/microchip/mplabc32/v2.02/bin/../lib/gcc/pic32mx/4.5.1/libgcc.a(_floatundisf.o)
 .debug_str     0x000067fe        0x0 /opt/microchip/mplabc32/v2.02/bin/../lib/gcc/pic32mx/4.5.1/libgcc.a(_umoddi3.o)

.debug_loc      0x00000000     0x649b
 *(.debug_loc)
 .debug_loc     0x00000000       0x84 build/Debug/debug/_ext/100901378/WFScan.o
 .debug_loc     0x00000084       0xb0 build/Debug/debug/_ext/100901378/WF_Spi.o
 .debug_loc     0x00000134       0x84 build/Debug/debug/_ext/100901378/WFEasyConfig.o
 .debug_loc     0x000001b8       0x84 build/Debug/debug/_ext/100901378/WFConsole.o
 .debug_loc     0x0000023c       0xb0 build/Debug/debug/_ext/100901378/WF_Eint.o
 .debug_loc     0x000002ec       0x84 build/Debug/debug/_ext/100901378/WFConnectionManager.o
 .debug_loc     0x00000370       0x84 build/Debug/debug/_ext/100901378/WFPowerSave.o
 .debug_loc     0x000003f4       0x84 build/Debug/debug/_ext/100901378/WFParamMsg.o
 .debug_loc     0x00000478       0x84 build/Debug/debug/_ext/100901378/WFConnectionProfile.o
 .debug_loc     0x000004fc       0xb0 build/Debug/debug/_ext/100901378/WFDriverRaw.o
 .debug_loc     0x000005ac       0x84 build/Debug/debug/_ext/100901378/WFConsoleIwpriv.o
 .debug_loc     0x00000630       0x84 build/Debug/debug/_ext/100901378/WFTxPower.o
 .debug_loc     0x000006b4       0x84 build/Debug/debug/_ext/100901378/WFInit.o
 .debug_loc     0x00000738       0xb0 build/Debug/debug/_ext/100901378/WFDriverCom.o
 .debug_loc     0x000007e8       0x84 build/Debug/debug/_ext/100901378/WFConsoleMsgHandler.o
 .debug_loc     0x0000086c       0x84 build/Debug/debug/_ext/100901378/WFEventHandler.o
 .debug_loc     0x000008f0       0x84 build/Debug/debug/_ext/100901378/WFConsoleIwconfig.o
 .debug_loc     0x00000974       0x84 build/Debug/debug/_ext/100901378/WFConsoleIfconfig.o
 .debug_loc     0x000009f8       0x84 build/Debug/debug/_ext/100901378/WFConnectionAlgorithm.o
 .debug_loc     0x00000a7c       0xb0 build/Debug/debug/_ext/100901378/WFMac.o
 .debug_loc     0x00000b2c       0x84 build/Debug/debug/_ext/100901378/WFDataTxRx.o
 .debug_loc     0x00000bb0       0x84 build/Debug/debug/_ext/100901378/WFMgmtMsg.o
 .debug_loc     0x00000c34       0x84 build/Debug/debug/_ext/100901378/WFConsoleMsgs.o
 .debug_loc     0x00000cb8      0x294 build/Debug/debug/_ext/867694782/TFTPc.o
 .debug_loc     0x00000f4c       0xdc build/Debug/debug/_ext/867694782/Announce.o
 .debug_loc     0x00001028       0x84 build/Debug/debug/_ext/867694782/CAN2TCPBridge.o
 .debug_loc     0x000010ac       0x84 build/Debug/debug/_ext/867694782/FTP.o
 .debug_loc     0x00001130       0x84 build/Debug/debug/_ext/867694782/ENC28J60.o
 .debug_loc     0x000011b4       0x84 build/Debug/debug/_ext/867694782/SPIRAM.o
 .debug_loc     0x00001238       0x84 build/Debug/debug/_ext/867694782/SNMP.o
 .debug_loc     0x000012bc       0x84 build/Debug/debug/_ext/867694782/Hashes.o
 .debug_loc     0x00001340       0x84 build/Debug/debug/_ext/867694782/LCDBlocking.o
 .debug_loc     0x000013c4      0x108 build/Debug/debug/_ext/867694782/StackTsk.o
 .debug_loc     0x000014cc      0x1ba build/Debug/debug/_ext/867694782/ARP.o
 .debug_loc     0x00001686       0x84 build/Debug/debug/_ext/867694782/HTTP.o
 .debug_loc     0x0000170a       0x84 build/Debug/debug/_ext/867694782/SNTP.o
 .debug_loc     0x0000178e       0x84 build/Debug/debug/_ext/867694782/RSA.o
 .debug_loc     0x00001812       0x84 build/Debug/debug/_ext/867694782/UART.o
 .debug_loc     0x00001896       0x84 build/Debug/debug/_ext/867694782/ZeroconfHelper.o
 .debug_loc     0x0000191a       0x84 build/Debug/debug/_ext/867694782/HTTP2.o
 .debug_loc     0x0000199e       0x84 build/Debug/debug/_ext/867694782/ZeroconfMulticastDNS.o
 .debug_loc     0x00001a22       0x84 build/Debug/debug/_ext/867694782/NBNS.o
 .debug_loc     0x00001aa6       0x84 build/Debug/debug/_ext/867694782/ENCX24J600.o
 .debug_loc     0x00001b2a      0x2c2 build/Debug/debug/_ext/867694782/BerkeleyAPI.o
 .debug_loc     0x00001dec       0x84 build/Debug/debug/_ext/867694782/TCPPerformanceTest.o
 .debug_loc     0x00001e70       0x84 build/Debug/debug/_ext/867694782/UART2TCPBridge.o
 .debug_loc     0x00001ef4       0x84 build/Debug/debug/_ext/867694782/AutoIP.o
 .debug_loc     0x00001f78       0x84 build/Debug/debug/_ext/867694782/DHCPs.o
 .debug_loc     0x00001ffc      0x23c build/Debug/debug/_ext/867694782/DHCP.o
 .debug_loc     0x00002238       0x84 build/Debug/debug/_ext/867694782/Reboot.o
 .debug_loc     0x000022bc       0x84 build/Debug/debug/_ext/867694782/SPIEEPROM.o
 .debug_loc     0x00002340       0x84 build/Debug/debug/_ext/867694782/SSL.o
 .debug_loc     0x000023c4       0xdc build/Debug/debug/_ext/867694782/Delay.o
 .debug_loc     0x000024a0       0x84 build/Debug/debug/_ext/867694782/SPIFlash.o
 .debug_loc     0x00002524       0x84 build/Debug/debug/_ext/867694782/DNSs.o
 .debug_loc     0x000025a8       0x84 build/Debug/debug/_ext/867694782/BigInt.o
 .debug_loc     0x0000262c      0x372 build/Debug/debug/_ext/867694782/UDP.o
 .debug_loc     0x0000299e       0x84 build/Debug/debug/_ext/867694782/DNS.o
 .debug_loc     0x00002a22      0x160 build/Debug/debug/_ext/867694782/ICMP.o
 .debug_loc     0x00002b82      0x4a6 build/Debug/debug/_ext/867694782/ETHPIC32IntMac.o
 .debug_loc     0x00003028       0x84 build/Debug/debug/_ext/867694782/ETH97J60.o
 .debug_loc     0x000030ac      0x2ee build/Debug/debug/_ext/867694782/Helpers.o
 .debug_loc     0x0000339a       0x84 build/Debug/debug/_ext/867694782/ZeroconfLinkLocal.o
 .debug_loc     0x0000341e      0x134 build/Debug/debug/_ext/867694782/IP.o
 .debug_loc     0x00003552      0x638 build/Debug/debug/_ext/867694782/TCP.o
 .debug_loc     0x00003b8a      0x134 build/Debug/debug/_ext/867694782/ETHPIC32ExtPhyDP83848.o
 .debug_loc     0x00003cbe       0x84 build/Debug/debug/_ext/867694782/SMTP.o
 .debug_loc     0x00003d42      0x1b8 build/Debug/debug/_ext/867694782/Tick.o
 .debug_loc     0x00003efa       0x84 build/Debug/debug/_ext/867694782/Telnet.o
 .debug_loc     0x00003f7e      0x26a build/Debug/debug/_ext/867694782/ETHPIC32ExtPhy.o
 .debug_loc     0x000041e8       0x84 build/Debug/debug/_ext/867694782/Random.o
 .debug_loc     0x0000426c       0x84 build/Debug/debug/_ext/867694782/MPFS.o
 .debug_loc     0x000042f0       0x84 build/Debug/debug/_ext/867694782/MPFS2.o
 .debug_loc     0x00004374       0x84 build/Debug/debug/_ext/867694782/DynDNS.o
 .debug_loc     0x000043f8       0x84 build/Debug/debug/_ext/867694782/UDPPerformanceTest.o
 .debug_loc     0x0000447c       0x84 build/Debug/debug/_ext/867694782/ARCFOUR.o
 .debug_loc     0x00004500      0x1e4 build/Debug/debug/_ext/1472/i2c_support.o
 .debug_loc     0x000046e4      0x166 build/Debug/debug/_ext/1472/main.o
 .debug_loc     0x0000484a       0xb0 build/Debug/debug/_ext/1472/MyTFTP.o
 .debug_loc     0x000048fa      0x162 build/Debug/debug/_ext/1472/Settings.o
 .debug_loc     0x00004a5c      0x348 build/Debug/debug/_ext/1472/HodoCrate.o
 .debug_loc     0x00004da4       0xb2 build/Debug/debug/_ext/1472/BerkeleyTCPServerDemo.o
 .debug_loc     0x00004e56       0xb0 build/Debug/debug/_ext/1472/PingDemo.o
 .debug_loc     0x00004f06      0xa47 /opt/microchip/mplabc32/v2.02/bin/../lib/gcc/pic32mx/4.5.1/libgcc.a(_udivdi3.o)
 .debug_loc     0x0000594d       0x68 /opt/microchip/mplabc32/v2.02/bin/../lib/gcc/pic32mx/4.5.1/libgcc.a(floatunsisf.o)
 .debug_loc     0x000059b5       0xc9 /opt/microchip/mplabc32/v2.02/bin/../lib/gcc/pic32mx/4.5.1/libgcc.a(_floatundisf.o)
 .debug_loc     0x00005a7e      0xa1d /opt/microchip/mplabc32/v2.02/bin/../lib/gcc/pic32mx/4.5.1/libgcc.a(_umoddi3.o)

.debug_macinfo
 *(.debug_macinfo)

.debug_weaknames
 *(.debug_weaknames)

.debug_funcnames
 *(.debug_funcnames)

.debug_typenames
 *(.debug_typenames)

.debug_varnames
 *(.debug_varnames)

.debug_pubtypes
                0x00000000     0x59d9
 *(.debug_pubtypes)
 .debug_pubtypes
                0x00000000       0xe7 build/Debug/debug/_ext/100901378/WFScan.o
 .debug_pubtypes
                0x000000e7       0xe7 build/Debug/debug/_ext/100901378/WF_Spi.o
 .debug_pubtypes
                0x000001ce       0xe7 build/Debug/debug/_ext/100901378/WFEasyConfig.o
 .debug_pubtypes
                0x000002b5       0xe7 build/Debug/debug/_ext/100901378/WFConsole.o
 .debug_pubtypes
                0x0000039c       0xe7 build/Debug/debug/_ext/100901378/WF_Eint.o
 .debug_pubtypes
                0x00000483       0xe7 build/Debug/debug/_ext/100901378/WFConnectionManager.o
 .debug_pubtypes
                0x0000056a       0xe7 build/Debug/debug/_ext/100901378/WFPowerSave.o
 .debug_pubtypes
                0x00000651       0xe7 build/Debug/debug/_ext/100901378/WFParamMsg.o
 .debug_pubtypes
                0x00000738       0xe7 build/Debug/debug/_ext/100901378/WFConnectionProfile.o
 .debug_pubtypes
                0x0000081f       0xe7 build/Debug/debug/_ext/100901378/WFDriverRaw.o
 .debug_pubtypes
                0x00000906       0xe7 build/Debug/debug/_ext/100901378/WFConsoleIwpriv.o
 .debug_pubtypes
                0x000009ed       0xe7 build/Debug/debug/_ext/100901378/WFTxPower.o
 .debug_pubtypes
                0x00000ad4       0xe7 build/Debug/debug/_ext/100901378/WFInit.o
 .debug_pubtypes
                0x00000bbb       0xe7 build/Debug/debug/_ext/100901378/WFDriverCom.o
 .debug_pubtypes
                0x00000ca2       0xe7 build/Debug/debug/_ext/100901378/WFConsoleMsgHandler.o
 .debug_pubtypes
                0x00000d89       0xe7 build/Debug/debug/_ext/100901378/WFEventHandler.o
 .debug_pubtypes
                0x00000e70       0xe7 build/Debug/debug/_ext/100901378/WFConsoleIwconfig.o
 .debug_pubtypes
                0x00000f57       0xe7 build/Debug/debug/_ext/100901378/WFConsoleIfconfig.o
 .debug_pubtypes
                0x0000103e       0xe7 build/Debug/debug/_ext/100901378/WFConnectionAlgorithm.o
 .debug_pubtypes
                0x00001125       0xe7 build/Debug/debug/_ext/100901378/WFMac.o
 .debug_pubtypes
                0x0000120c       0xe7 build/Debug/debug/_ext/100901378/WFDataTxRx.o
 .debug_pubtypes
                0x000012f3       0xe7 build/Debug/debug/_ext/100901378/WFMgmtMsg.o
 .debug_pubtypes
                0x000013da       0xe7 build/Debug/debug/_ext/100901378/WFConsoleMsgs.o
 .debug_pubtypes
                0x000014c1      0x1e3 build/Debug/debug/_ext/867694782/TFTPc.o
 .debug_pubtypes
                0x000016a4      0x178 build/Debug/debug/_ext/867694782/Announce.o
 .debug_pubtypes
                0x0000181c       0xe7 build/Debug/debug/_ext/867694782/CAN2TCPBridge.o
 .debug_pubtypes
                0x00001903       0xe7 build/Debug/debug/_ext/867694782/FTP.o
 .debug_pubtypes
                0x000019ea       0xe7 build/Debug/debug/_ext/867694782/ENC28J60.o
 .debug_pubtypes
                0x00001ad1       0xe7 build/Debug/debug/_ext/867694782/SPIRAM.o
 .debug_pubtypes
                0x00001bb8       0xe7 build/Debug/debug/_ext/867694782/SNMP.o
 .debug_pubtypes
                0x00001c9f       0xe7 build/Debug/debug/_ext/867694782/Hashes.o
 .debug_pubtypes
                0x00001d86       0xe7 build/Debug/debug/_ext/867694782/LCDBlocking.o
 .debug_pubtypes
                0x00001e6d      0x168 build/Debug/debug/_ext/867694782/StackTsk.o
 .debug_pubtypes
                0x00001fd5      0x16a build/Debug/debug/_ext/867694782/ARP.o
 .debug_pubtypes
                0x0000213f       0xe7 build/Debug/debug/_ext/867694782/HTTP.o
 .debug_pubtypes
                0x00002226       0xe7 build/Debug/debug/_ext/867694782/SNTP.o
 .debug_pubtypes
                0x0000230d       0xe7 build/Debug/debug/_ext/867694782/RSA.o
 .debug_pubtypes
                0x000023f4       0xe7 build/Debug/debug/_ext/867694782/UART.o
 .debug_pubtypes
                0x000024db       0xe7 build/Debug/debug/_ext/867694782/ZeroconfHelper.o
 .debug_pubtypes
                0x000025c2       0xe7 build/Debug/debug/_ext/867694782/HTTP2.o
 .debug_pubtypes
                0x000026a9       0xe7 build/Debug/debug/_ext/867694782/ZeroconfMulticastDNS.o
 .debug_pubtypes
                0x00002790       0xe7 build/Debug/debug/_ext/867694782/NBNS.o
 .debug_pubtypes
                0x00002877       0xe7 build/Debug/debug/_ext/867694782/ENCX24J600.o
 .debug_pubtypes
                0x0000295e      0x1f9 build/Debug/debug/_ext/867694782/BerkeleyAPI.o
 .debug_pubtypes
                0x00002b57       0xe7 build/Debug/debug/_ext/867694782/TCPPerformanceTest.o
 .debug_pubtypes
                0x00002c3e       0xe7 build/Debug/debug/_ext/867694782/UART2TCPBridge.o
 .debug_pubtypes
                0x00002d25       0xe7 build/Debug/debug/_ext/867694782/AutoIP.o
 .debug_pubtypes
                0x00002e0c       0xe7 build/Debug/debug/_ext/867694782/DHCPs.o
 .debug_pubtypes
                0x00002ef3      0x1b6 build/Debug/debug/_ext/867694782/DHCP.o
 .debug_pubtypes
                0x000030a9       0xe7 build/Debug/debug/_ext/867694782/Reboot.o
 .debug_pubtypes
                0x00003190       0xe7 build/Debug/debug/_ext/867694782/SPIEEPROM.o
 .debug_pubtypes
                0x00003277       0xe7 build/Debug/debug/_ext/867694782/SSL.o
 .debug_pubtypes
                0x0000335e       0xfa build/Debug/debug/_ext/867694782/Delay.o
 .debug_pubtypes
                0x00003458       0xe7 build/Debug/debug/_ext/867694782/SPIFlash.o
 .debug_pubtypes
                0x0000353f       0xe7 build/Debug/debug/_ext/867694782/DNSs.o
 .debug_pubtypes
                0x00003626       0xe7 build/Debug/debug/_ext/867694782/BigInt.o
 .debug_pubtypes
                0x0000370d      0x1bf build/Debug/debug/_ext/867694782/UDP.o
 .debug_pubtypes
                0x000038cc       0xe7 build/Debug/debug/_ext/867694782/DNS.o
 .debug_pubtypes
                0x000039b3      0x16f build/Debug/debug/_ext/867694782/ICMP.o
 .debug_pubtypes
                0x00003b22      0x1df build/Debug/debug/_ext/867694782/ETHPIC32IntMac.o
 .debug_pubtypes
                0x00003d01       0xe7 build/Debug/debug/_ext/867694782/ETH97J60.o
 .debug_pubtypes
                0x00003de8      0x14d build/Debug/debug/_ext/867694782/Helpers.o
 .debug_pubtypes
                0x00003f35       0xe7 build/Debug/debug/_ext/867694782/ZeroconfLinkLocal.o
 .debug_pubtypes
                0x0000401c      0x178 build/Debug/debug/_ext/867694782/IP.o
 .debug_pubtypes
                0x00004194      0x210 build/Debug/debug/_ext/867694782/TCP.o
 .debug_pubtypes
                0x000043a4      0x119 build/Debug/debug/_ext/867694782/ETHPIC32ExtPhyDP83848.o
 .debug_pubtypes
                0x000044bd       0xe7 build/Debug/debug/_ext/867694782/SMTP.o
 .debug_pubtypes
                0x000045a4      0x137 build/Debug/debug/_ext/867694782/Tick.o
 .debug_pubtypes
                0x000046db       0xe7 build/Debug/debug/_ext/867694782/Telnet.o
 .debug_pubtypes
                0x000047c2      0x1ab build/Debug/debug/_ext/867694782/ETHPIC32ExtPhy.o
 .debug_pubtypes
                0x0000496d       0xe7 build/Debug/debug/_ext/867694782/Random.o
 .debug_pubtypes
                0x00004a54       0xe7 build/Debug/debug/_ext/867694782/MPFS.o
 .debug_pubtypes
                0x00004b3b       0xe7 build/Debug/debug/_ext/867694782/MPFS2.o
 .debug_pubtypes
                0x00004c22       0xe7 build/Debug/debug/_ext/867694782/DynDNS.o
 .debug_pubtypes
                0x00004d09       0xe7 build/Debug/debug/_ext/867694782/UDPPerformanceTest.o
 .debug_pubtypes
                0x00004df0       0xe7 build/Debug/debug/_ext/867694782/ARCFOUR.o
 .debug_pubtypes
                0x00004ed7      0x11e build/Debug/debug/_ext/1472/i2c_support.o
 .debug_pubtypes
                0x00004ff5      0x221 build/Debug/debug/_ext/1472/main.o
 .debug_pubtypes
                0x00005216      0x16b build/Debug/debug/_ext/1472/MyTFTP.o
 .debug_pubtypes
                0x00005381      0x158 build/Debug/debug/_ext/1472/Settings.o
 .debug_pubtypes
                0x000054d9      0x120 build/Debug/debug/_ext/1472/HodoCrate.o
 .debug_pubtypes
                0x000055f9      0x15b build/Debug/debug/_ext/1472/BerkeleyTCPServerDemo.o
 .debug_pubtypes
                0x00005754      0x15f build/Debug/debug/_ext/1472/PingDemo.o
 .debug_pubtypes
                0x000058b3       0x59 /opt/microchip/mplabc32/v2.02/bin/../lib/gcc/pic32mx/4.5.1/libgcc.a(_udivdi3.o)
 .debug_pubtypes
                0x0000590c       0x34 /opt/microchip/mplabc32/v2.02/bin/../lib/gcc/pic32mx/4.5.1/libgcc.a(floatunsisf.o)
 .debug_pubtypes
                0x00005940       0x40 /opt/microchip/mplabc32/v2.02/bin/../lib/gcc/pic32mx/4.5.1/libgcc.a(_floatundisf.o)
 .debug_pubtypes
                0x00005980       0x59 /opt/microchip/mplabc32/v2.02/bin/../lib/gcc/pic32mx/4.5.1/libgcc.a(_umoddi3.o)

.debug_ranges   0x00000000     0x12e0
 *(.debug_ranges)
 .debug_ranges  0x00000000       0x20 build/Debug/debug/_ext/100901378/WFScan.o
 .debug_ranges  0x00000020       0x28 build/Debug/debug/_ext/100901378/WF_Spi.o
 .debug_ranges  0x00000048       0x20 build/Debug/debug/_ext/100901378/WFEasyConfig.o
 .debug_ranges  0x00000068       0x20 build/Debug/debug/_ext/100901378/WFConsole.o
 .debug_ranges  0x00000088       0x28 build/Debug/debug/_ext/100901378/WF_Eint.o
 .debug_ranges  0x000000b0       0x20 build/Debug/debug/_ext/100901378/WFConnectionManager.o
 .debug_ranges  0x000000d0       0x20 build/Debug/debug/_ext/100901378/WFPowerSave.o
 .debug_ranges  0x000000f0       0x20 build/Debug/debug/_ext/100901378/WFParamMsg.o
 .debug_ranges  0x00000110       0x20 build/Debug/debug/_ext/100901378/WFConnectionProfile.o
 .debug_ranges  0x00000130       0x28 build/Debug/debug/_ext/100901378/WFDriverRaw.o
 .debug_ranges  0x00000158       0x20 build/Debug/debug/_ext/100901378/WFConsoleIwpriv.o
 .debug_ranges  0x00000178       0x20 build/Debug/debug/_ext/100901378/WFTxPower.o
 .debug_ranges  0x00000198       0x20 build/Debug/debug/_ext/100901378/WFInit.o
 .debug_ranges  0x000001b8       0x28 build/Debug/debug/_ext/100901378/WFDriverCom.o
 .debug_ranges  0x000001e0       0x20 build/Debug/debug/_ext/100901378/WFConsoleMsgHandler.o
 .debug_ranges  0x00000200       0x20 build/Debug/debug/_ext/100901378/WFEventHandler.o
 .debug_ranges  0x00000220       0x20 build/Debug/debug/_ext/100901378/WFConsoleIwconfig.o
 .debug_ranges  0x00000240       0x20 build/Debug/debug/_ext/100901378/WFConsoleIfconfig.o
 .debug_ranges  0x00000260       0x20 build/Debug/debug/_ext/100901378/WFConnectionAlgorithm.o
 .debug_ranges  0x00000280       0x28 build/Debug/debug/_ext/100901378/WFMac.o
 .debug_ranges  0x000002a8       0x20 build/Debug/debug/_ext/100901378/WFDataTxRx.o
 .debug_ranges  0x000002c8       0x20 build/Debug/debug/_ext/100901378/WFMgmtMsg.o
 .debug_ranges  0x000002e8       0x20 build/Debug/debug/_ext/100901378/WFConsoleMsgs.o
 .debug_ranges  0x00000308       0x28 build/Debug/debug/_ext/867694782/TFTPc.o
 .debug_ranges  0x00000330       0x28 build/Debug/debug/_ext/867694782/Announce.o
 .debug_ranges  0x00000358       0x20 build/Debug/debug/_ext/867694782/CAN2TCPBridge.o
 .debug_ranges  0x00000378       0x20 build/Debug/debug/_ext/867694782/FTP.o
 .debug_ranges  0x00000398       0x20 build/Debug/debug/_ext/867694782/ENC28J60.o
 .debug_ranges  0x000003b8       0x20 build/Debug/debug/_ext/867694782/SPIRAM.o
 .debug_ranges  0x000003d8       0x20 build/Debug/debug/_ext/867694782/SNMP.o
 .debug_ranges  0x000003f8       0x20 build/Debug/debug/_ext/867694782/Hashes.o
 .debug_ranges  0x00000418       0x20 build/Debug/debug/_ext/867694782/LCDBlocking.o
 .debug_ranges  0x00000438       0x28 build/Debug/debug/_ext/867694782/StackTsk.o
 .debug_ranges  0x00000460       0x28 build/Debug/debug/_ext/867694782/ARP.o
 .debug_ranges  0x00000488       0x20 build/Debug/debug/_ext/867694782/HTTP.o
 .debug_ranges  0x000004a8       0x20 build/Debug/debug/_ext/867694782/SNTP.o
 .debug_ranges  0x000004c8       0x20 build/Debug/debug/_ext/867694782/RSA.o
 .debug_ranges  0x000004e8       0x20 build/Debug/debug/_ext/867694782/UART.o
 .debug_ranges  0x00000508       0x20 build/Debug/debug/_ext/867694782/ZeroconfHelper.o
 .debug_ranges  0x00000528       0x20 build/Debug/debug/_ext/867694782/HTTP2.o
 .debug_ranges  0x00000548       0x20 build/Debug/debug/_ext/867694782/ZeroconfMulticastDNS.o
 .debug_ranges  0x00000568       0x20 build/Debug/debug/_ext/867694782/NBNS.o
 .debug_ranges  0x00000588       0x20 build/Debug/debug/_ext/867694782/ENCX24J600.o
 .debug_ranges  0x000005a8       0x28 build/Debug/debug/_ext/867694782/BerkeleyAPI.o
 .debug_ranges  0x000005d0       0x20 build/Debug/debug/_ext/867694782/TCPPerformanceTest.o
 .debug_ranges  0x000005f0       0x20 build/Debug/debug/_ext/867694782/UART2TCPBridge.o
 .debug_ranges  0x00000610       0x20 build/Debug/debug/_ext/867694782/AutoIP.o
 .debug_ranges  0x00000630       0x20 build/Debug/debug/_ext/867694782/DHCPs.o
 .debug_ranges  0x00000650       0x28 build/Debug/debug/_ext/867694782/DHCP.o
 .debug_ranges  0x00000678       0x20 build/Debug/debug/_ext/867694782/Reboot.o
 .debug_ranges  0x00000698       0x20 build/Debug/debug/_ext/867694782/SPIEEPROM.o
 .debug_ranges  0x000006b8       0x20 build/Debug/debug/_ext/867694782/SSL.o
 .debug_ranges  0x000006d8       0x28 build/Debug/debug/_ext/867694782/Delay.o
 .debug_ranges  0x00000700       0x20 build/Debug/debug/_ext/867694782/SPIFlash.o
 .debug_ranges  0x00000720       0x20 build/Debug/debug/_ext/867694782/DNSs.o
 .debug_ranges  0x00000740       0x20 build/Debug/debug/_ext/867694782/BigInt.o
 .debug_ranges  0x00000760       0x28 build/Debug/debug/_ext/867694782/UDP.o
 .debug_ranges  0x00000788       0x20 build/Debug/debug/_ext/867694782/DNS.o
 .debug_ranges  0x000007a8       0x28 build/Debug/debug/_ext/867694782/ICMP.o
 .debug_ranges  0x000007d0       0x28 build/Debug/debug/_ext/867694782/ETHPIC32IntMac.o
 .debug_ranges  0x000007f8       0x20 build/Debug/debug/_ext/867694782/ETH97J60.o
 .debug_ranges  0x00000818       0x28 build/Debug/debug/_ext/867694782/Helpers.o
 .debug_ranges  0x00000840       0x20 build/Debug/debug/_ext/867694782/ZeroconfLinkLocal.o
 .debug_ranges  0x00000860       0x28 build/Debug/debug/_ext/867694782/IP.o
 .debug_ranges  0x00000888       0x28 build/Debug/debug/_ext/867694782/TCP.o
 .debug_ranges  0x000008b0       0x28 build/Debug/debug/_ext/867694782/ETHPIC32ExtPhyDP83848.o
 .debug_ranges  0x000008d8       0x20 build/Debug/debug/_ext/867694782/SMTP.o
 .debug_ranges  0x000008f8       0x28 build/Debug/debug/_ext/867694782/Tick.o
 .debug_ranges  0x00000920       0x20 build/Debug/debug/_ext/867694782/Telnet.o
 .debug_ranges  0x00000940       0x28 build/Debug/debug/_ext/867694782/ETHPIC32ExtPhy.o
 .debug_ranges  0x00000968       0x20 build/Debug/debug/_ext/867694782/Random.o
 .debug_ranges  0x00000988       0x20 build/Debug/debug/_ext/867694782/MPFS.o
 .debug_ranges  0x000009a8       0x20 build/Debug/debug/_ext/867694782/MPFS2.o
 .debug_ranges  0x000009c8       0x20 build/Debug/debug/_ext/867694782/DynDNS.o
 .debug_ranges  0x000009e8       0x20 build/Debug/debug/_ext/867694782/UDPPerformanceTest.o
 .debug_ranges  0x00000a08       0x20 build/Debug/debug/_ext/867694782/ARCFOUR.o
 .debug_ranges  0x00000a28       0x28 build/Debug/debug/_ext/1472/i2c_support.o
 .debug_ranges  0x00000a50       0x58 build/Debug/debug/_ext/1472/main.o
 .debug_ranges  0x00000aa8       0x28 build/Debug/debug/_ext/1472/MyTFTP.o
 .debug_ranges  0x00000ad0       0x28 build/Debug/debug/_ext/1472/Settings.o
 .debug_ranges  0x00000af8       0x28 build/Debug/debug/_ext/1472/HodoCrate.o
 .debug_ranges  0x00000b20       0x28 build/Debug/debug/_ext/1472/BerkeleyTCPServerDemo.o
 .debug_ranges  0x00000b48       0x40 build/Debug/debug/_ext/1472/PingDemo.o
 .debug_ranges  0x00000b88       0xc0 /opt/microchip/mplabc32/v2.02/bin/../lib/gcc/pic32mx/4.5.1/libgcc.a(_udivdi3.o)
 .debug_ranges  0x00000c48       0x38 /opt/microchip/mplabc32/v2.02/bin/../lib/gcc/pic32mx/4.5.1/../../../../pic32mx/lib/libdebug.a(db_utils.o)
 .debug_ranges  0x00000c80       0x10 /opt/microchip/mplabc32/v2.02/bin/../lib/gcc/pic32mx/4.5.1/../../../../pic32mx/lib/libc.a(atoi.o)
 .debug_ranges  0x00000c90       0x20 /opt/microchip/mplabc32/v2.02/bin/../lib/gcc/pic32mx/4.5.1/../../../../pic32mx/lib/libc.a(malloc.o)
 .debug_ranges  0x00000cb0       0x18 /opt/microchip/mplabc32/v2.02/bin/../lib/gcc/pic32mx/4.5.1/../../../../pic32mx/lib/libc.a(puts.o)
 .debug_ranges  0x00000cc8       0x18 /opt/microchip/mplabc32/v2.02/bin/../lib/gcc/pic32mx/4.5.1/../../../../pic32mx/lib/libc.a(rand.o)
 .debug_ranges  0x00000ce0       0x10 /opt/microchip/mplabc32/v2.02/bin/../lib/gcc/pic32mx/4.5.1/../../../../pic32mx/lib/libc.a(strtok.o)
 .debug_ranges  0x00000cf0       0x10 /opt/microchip/mplabc32/v2.02/bin/../lib/gcc/pic32mx/4.5.1/../../../../pic32mx/lib/libc.a(printf_cdnopsuxX.eo)
 .debug_ranges  0x00000d00       0x10 /opt/microchip/mplabc32/v2.02/bin/../lib/gcc/pic32mx/4.5.1/../../../../pic32mx/lib/libc.a(sprintf_cdfFnopsuxX.eo)
 .debug_ranges  0x00000d10       0x30 /opt/microchip/mplabc32/v2.02/bin/../lib/gcc/pic32mx/4.5.1/../../../../pic32mx/lib/libc.a(sbrk.o)
 .debug_ranges  0x00000d40       0x10 /opt/microchip/mplabc32/v2.02/bin/../lib/gcc/pic32mx/4.5.1/../../../../pic32mx/lib/libc.a(default-bootstrap-exception-handler.o)
 .debug_ranges  0x00000d50       0x10 /opt/microchip/mplabc32/v2.02/bin/../lib/gcc/pic32mx/4.5.1/../../../../pic32mx/lib/libc.a(default-on-reset.o)
 .debug_ranges  0x00000d60       0x10 /opt/microchip/mplabc32/v2.02/bin/../lib/gcc/pic32mx/4.5.1/../../../../pic32mx/lib/libc.a(default-on-bootstrap.o)
 .debug_ranges  0x00000d70       0x10 /opt/microchip/mplabc32/v2.02/bin/../lib/gcc/pic32mx/4.5.1/../../../../pic32mx/lib/libc.a(_fputc_simple.o)
 .debug_ranges  0x00000d80       0x10 /opt/microchip/mplabc32/v2.02/bin/../lib/gcc/pic32mx/4.5.1/../../../../pic32mx/lib/libc.a(strcspn.o)
 .debug_ranges  0x00000d90       0x10 /opt/microchip/mplabc32/v2.02/bin/../lib/gcc/pic32mx/4.5.1/../../../../pic32mx/lib/libc.a(strspn.o)
 .debug_ranges  0x00000da0       0x18 /opt/microchip/mplabc32/v2.02/bin/../lib/gcc/pic32mx/4.5.1/../../../../pic32mx/lib/libc.a(doprnt_cdfFnopsuxX.eo)
 .debug_ranges  0x00000db8       0x10 /opt/microchip/mplabc32/v2.02/bin/../lib/gcc/pic32mx/4.5.1/../../../../pic32mx/lib/libc.a(write.o)
 .debug_ranges  0x00000dc8       0x10 /opt/microchip/mplabc32/v2.02/bin/../lib/gcc/pic32mx/4.5.1/../../../../pic32mx/lib/libc.a(_flsbuf_simple.o)
 .debug_ranges  0x00000dd8       0x10 /opt/microchip/mplabc32/v2.02/bin/../lib/gcc/pic32mx/4.5.1/../../../../pic32mx/lib/libc.a(strchr.o)
 .debug_ranges  0x00000de8       0x10 /opt/microchip/mplabc32/v2.02/bin/../lib/gcc/pic32mx/4.5.1/../../../../pic32mx/lib/libe.a(_floatdisf.o)
 .debug_ranges  0x00000df8       0x10 /opt/microchip/mplabc32/v2.02/bin/../lib/gcc/pic32mx/4.5.1/../../../../pic32mx/lib/libmchp_peripheral.a(read_core_timer_lib.o)
 .debug_ranges  0x00000e08       0x38 /opt/microchip/mplabc32/v2.02/bin/../lib/gcc/pic32mx/4.5.1/../../../../pic32mx/lib/libmchp_peripheral_32MX795F512L.a(eth_ack_packet_lib.o)
 .debug_ranges  0x00000e40       0x18 /opt/microchip/mplabc32/v2.02/bin/../lib/gcc/pic32mx/4.5.1/../../../../pic32mx/lib/libmchp_peripheral_32MX795F512L.a(eth_descriptors_add_lib.o)
 .debug_ranges  0x00000e58       0x10 /opt/microchip/mplabc32/v2.02/bin/../lib/gcc/pic32mx/4.5.1/../../../../pic32mx/lib/libmchp_peripheral_32MX795F512L.a(eth_init_lib.o)
 .debug_ranges  0x00000e68       0x10 /opt/microchip/mplabc32/v2.02/bin/../lib/gcc/pic32mx/4.5.1/../../../../pic32mx/lib/libmchp_peripheral_32MX795F512L.a(eth_mac_open_lib.o)
 .debug_ranges  0x00000e78       0x20 /opt/microchip/mplabc32/v2.02/bin/../lib/gcc/pic32mx/4.5.1/../../../../pic32mx/lib/libmchp_peripheral_32MX795F512L.a(eth_mac_set_address_max_lib.o)
 .debug_ranges  0x00000e98       0x10 /opt/microchip/mplabc32/v2.02/bin/../lib/gcc/pic32mx/4.5.1/../../../../pic32mx/lib/libmchp_peripheral_32MX795F512L.a(eth_rx_buffers_append_lib.o)
 .debug_ranges  0x00000ea8       0x38 /opt/microchip/mplabc32/v2.02/bin/../lib/gcc/pic32mx/4.5.1/../../../../pic32mx/lib/libmchp_peripheral_32MX795F512L.a(eth_rx_filters_lib.o)
 .debug_ranges  0x00000ee0       0x18 /opt/microchip/mplabc32/v2.02/bin/../lib/gcc/pic32mx/4.5.1/../../../../pic32mx/lib/libmchp_peripheral_32MX795F512L.a(eth_rx_get_packet_lib.o)
 .debug_ranges  0x00000ef8       0x10 /opt/microchip/mplabc32/v2.02/bin/../lib/gcc/pic32mx/4.5.1/../../../../pic32mx/lib/libmchp_peripheral_32MX795F512L.a(eth_rx_set_buffer_size_lib.o)
 .debug_ranges  0x00000f08       0x38 /opt/microchip/mplabc32/v2.02/bin/../lib/gcc/pic32mx/4.5.1/../../../../pic32mx/lib/libmchp_peripheral_32MX795F512L.a(eth_tx_packet_lib.o)
 .debug_ranges  0x00000f40       0x10 /opt/microchip/mplabc32/v2.02/bin/../lib/gcc/pic32mx/4.5.1/../../../../pic32mx/lib/libmchp_peripheral_32MX795F512L.a(_eth_append_busy_list_lib.o)
 .debug_ranges  0x00000f50       0x38 /opt/microchip/mplabc32/v2.02/bin/../lib/gcc/pic32mx/4.5.1/../../../../pic32mx/lib/libmchp_peripheral_32MX795F512L.a(eth_miim_access.o)
 .debug_ranges  0x00000f88       0x38 /opt/microchip/mplabc32/v2.02/bin/../lib/gcc/pic32mx/4.5.1/../../../../pic32mx/lib/libmchp_peripheral_32MX795F512L.a(eth_miim_legacy.o)
 .debug_ranges  0x00000fc0       0x10 /opt/microchip/mplabc32/v2.02/bin/../lib/gcc/pic32mx/4.5.1/../../../../pic32mx/lib/libmchp_peripheral_32MX795F512L.a(soft_reset_lib.o)
 .debug_ranges  0x00000fd0       0x18 /opt/microchip/mplabc32/v2.02/bin/../lib/gcc/pic32mx/4.5.1/../../../../pic32mx/lib/libmchp_peripheral_32MX795F512L.a(pcache.o)
 .debug_ranges  0x00000fe8       0x10 /opt/microchip/mplabc32/v2.02/bin/../lib/gcc/pic32mx/4.5.1/../../../../pic32mx/lib/libmchp_peripheral_32MX795F512L.a(int_disable_interrupts_lib.o)
 .debug_ranges  0x00000ff8       0x10 /opt/microchip/mplabc32/v2.02/bin/../lib/gcc/pic32mx/4.5.1/../../../../pic32mx/lib/libmchp_peripheral_32MX795F512L.a(int_restore_interrupts_lib.o)
 .debug_ranges  0x00001008       0x10 /opt/microchip/mplabc32/v2.02/bin/../lib/gcc/pic32mx/4.5.1/../../../../pic32mx/lib/libmchp_peripheral_32MX795F512L.a(int_enable_mv_int_lib.o)
 .debug_ranges  0x00001018       0x50 /opt/microchip/mplabc32/v2.02/bin/../lib/gcc/pic32mx/4.5.1/../../../../pic32mx/lib/libmchp_peripheral_32MX795F512L.a(int_tbl_lib.o)
 .debug_ranges  0x00001068       0x10 /opt/microchip/mplabc32/v2.02/bin/../lib/gcc/pic32mx/4.5.1/../../../../pic32mx/lib/libmchp_peripheral_32MX795F512L.a(nvm_erase_page_lib.o)
 .debug_ranges  0x00001078       0x10 /opt/microchip/mplabc32/v2.02/bin/../lib/gcc/pic32mx/4.5.1/../../../../pic32mx/lib/libmchp_peripheral_32MX795F512L.a(nvm_operation_lib.o)
 .debug_ranges  0x00001088       0x10 /opt/microchip/mplabc32/v2.02/bin/../lib/gcc/pic32mx/4.5.1/../../../../pic32mx/lib/libmchp_peripheral_32MX795F512L.a(nvm_write_row_lib.o)
 .debug_ranges  0x00001098       0x10 /opt/microchip/mplabc32/v2.02/bin/../lib/gcc/pic32mx/4.5.1/../../../../pic32mx/lib/libmchp_peripheral_32MX795F512L.a(port_set_pins_digital_in_lib.o)
 .debug_ranges  0x000010a8       0x10 /opt/microchip/mplabc32/v2.02/bin/../lib/gcc/pic32mx/4.5.1/../../../../pic32mx/lib/libmchp_peripheral_32MX795F512L.a(port_set_pins_digital_out_lib.o)
 .debug_ranges  0x000010b8       0x10 /opt/microchip/mplabc32/v2.02/bin/../lib/gcc/pic32mx/4.5.1/../../../../pic32mx/lib/libmchp_peripheral_32MX795F512L.a(I2CAcknowledgeByte.o)
 .debug_ranges  0x000010c8       0x10 /opt/microchip/mplabc32/v2.02/bin/../lib/gcc/pic32mx/4.5.1/../../../../pic32mx/lib/libmchp_peripheral_32MX795F512L.a(I2CBusIsIdle.o)
 .debug_ranges  0x000010d8       0x10 /opt/microchip/mplabc32/v2.02/bin/../lib/gcc/pic32mx/4.5.1/../../../../pic32mx/lib/libmchp_peripheral_32MX795F512L.a(I2CByteWasAcknowledged.o)
 .debug_ranges  0x000010e8       0x10 /opt/microchip/mplabc32/v2.02/bin/../lib/gcc/pic32mx/4.5.1/../../../../pic32mx/lib/libmchp_peripheral_32MX795F512L.a(I2CClearStatus.o)
 .debug_ranges  0x000010f8       0x10 /opt/microchip/mplabc32/v2.02/bin/../lib/gcc/pic32mx/4.5.1/../../../../pic32mx/lib/libmchp_peripheral_32MX795F512L.a(I2CConfigure.o)
 .debug_ranges  0x00001108       0x10 /opt/microchip/mplabc32/v2.02/bin/../lib/gcc/pic32mx/4.5.1/../../../../pic32mx/lib/libmchp_peripheral_32MX795F512L.a(I2CEnable.o)
 .debug_ranges  0x00001118       0x10 /opt/microchip/mplabc32/v2.02/bin/../lib/gcc/pic32mx/4.5.1/../../../../pic32mx/lib/libmchp_peripheral_32MX795F512L.a(I2CGetByte.o)
 .debug_ranges  0x00001128       0x10 /opt/microchip/mplabc32/v2.02/bin/../lib/gcc/pic32mx/4.5.1/../../../../pic32mx/lib/libmchp_peripheral_32MX795F512L.a(I2CGetStatus.o)
 .debug_ranges  0x00001138       0x10 /opt/microchip/mplabc32/v2.02/bin/../lib/gcc/pic32mx/4.5.1/../../../../pic32mx/lib/libmchp_peripheral_32MX795F512L.a(I2CReceivedDataIsAvailable.o)
 .debug_ranges  0x00001148       0x10 /opt/microchip/mplabc32/v2.02/bin/../lib/gcc/pic32mx/4.5.1/../../../../pic32mx/lib/libmchp_peripheral_32MX795F512L.a(I2CReceiverEnable.o)
 .debug_ranges  0x00001158       0x10 /opt/microchip/mplabc32/v2.02/bin/../lib/gcc/pic32mx/4.5.1/../../../../pic32mx/lib/libmchp_peripheral_32MX795F512L.a(I2CRepeatStart.o)
 .debug_ranges  0x00001168       0x10 /opt/microchip/mplabc32/v2.02/bin/../lib/gcc/pic32mx/4.5.1/../../../../pic32mx/lib/libmchp_peripheral_32MX795F512L.a(I2CSendByte.o)
 .debug_ranges  0x00001178       0x10 /opt/microchip/mplabc32/v2.02/bin/../lib/gcc/pic32mx/4.5.1/../../../../pic32mx/lib/libmchp_peripheral_32MX795F512L.a(I2CSetFrequency.o)
 .debug_ranges  0x00001188       0x10 /opt/microchip/mplabc32/v2.02/bin/../lib/gcc/pic32mx/4.5.1/../../../../pic32mx/lib/libmchp_peripheral_32MX795F512L.a(I2CStart.o)
 .debug_ranges  0x00001198       0x10 /opt/microchip/mplabc32/v2.02/bin/../lib/gcc/pic32mx/4.5.1/../../../../pic32mx/lib/libmchp_peripheral_32MX795F512L.a(I2CStop.o)
 .debug_ranges  0x000011a8       0x10 /opt/microchip/mplabc32/v2.02/bin/../lib/gcc/pic32mx/4.5.1/../../../../pic32mx/lib/libmchp_peripheral_32MX795F512L.a(I2CTransmissionHasCompleted.o)
 .debug_ranges  0x000011b8       0x10 /opt/microchip/mplabc32/v2.02/bin/../lib/gcc/pic32mx/4.5.1/../../../../pic32mx/lib/libmchp_peripheral_32MX795F512L.a(I2CTransmitterIsReady.o)
 .debug_ranges  0x000011c8       0x10 /opt/microchip/mplabc32/v2.02/bin/../lib/gcc/pic32mx/4.5.1/../../../../pic32mx/lib/libmchp_peripheral_32MX795F512L.a(int_enable_interrupts_lib.o)
 .debug_ranges  0x000011d8       0x10 /opt/microchip/mplabc32/v2.02/bin/../lib/gcc/pic32mx/4.5.1/../../../../pic32mx/lib/libc.a(calloc.o)
 .debug_ranges  0x000011e8       0xf8 /opt/microchip/mplabc32/v2.02/bin/../lib/gcc/pic32mx/4.5.1/libgcc.a(_umoddi3.o)

.gnu.attributes
                0x00000000       0x10
 *(.gnu.attributes)
 .gnu.attributes
                0x00000000       0x10 build/Debug/debug/_ext/100901378/WFScan.o
 .gnu.attributes
                0x00000010       0x10 build/Debug/debug/_ext/100901378/WF_Spi.o
 .gnu.attributes
                0x00000020       0x10 build/Debug/debug/_ext/100901378/WFEasyConfig.o
 .gnu.attributes
                0x00000030       0x10 build/Debug/debug/_ext/100901378/WFConsole.o
 .gnu.attributes
                0x00000040       0x10 build/Debug/debug/_ext/100901378/WF_Eint.o
 .gnu.attributes
                0x00000050       0x10 build/Debug/debug/_ext/100901378/WFConnectionManager.o
 .gnu.attributes
                0x00000060       0x10 build/Debug/debug/_ext/100901378/WFPowerSave.o
 .gnu.attributes
                0x00000070       0x10 build/Debug/debug/_ext/100901378/WFParamMsg.o
 .gnu.attributes
                0x00000080       0x10 build/Debug/debug/_ext/100901378/WFConnectionProfile.o
 .gnu.attributes
                0x00000090       0x10 build/Debug/debug/_ext/100901378/WFDriverRaw.o
 .gnu.attributes
                0x000000a0       0x10 build/Debug/debug/_ext/100901378/WFConsoleIwpriv.o
 .gnu.attributes
                0x000000b0       0x10 build/Debug/debug/_ext/100901378/WFTxPower.o
 .gnu.attributes
                0x000000c0       0x10 build/Debug/debug/_ext/100901378/WFInit.o
 .gnu.attributes
                0x000000d0       0x10 build/Debug/debug/_ext/100901378/WFDriverCom.o
 .gnu.attributes
                0x000000e0       0x10 build/Debug/debug/_ext/100901378/WFConsoleMsgHandler.o
 .gnu.attributes
                0x000000f0       0x10 build/Debug/debug/_ext/100901378/WFEventHandler.o
 .gnu.attributes
                0x00000100       0x10 build/Debug/debug/_ext/100901378/WFConsoleIwconfig.o
 .gnu.attributes
                0x00000110       0x10 build/Debug/debug/_ext/100901378/WFConsoleIfconfig.o
 .gnu.attributes
                0x00000120       0x10 build/Debug/debug/_ext/100901378/WFConnectionAlgorithm.o
 .gnu.attributes
                0x00000130       0x10 build/Debug/debug/_ext/100901378/WFMac.o
 .gnu.attributes
                0x00000140       0x10 build/Debug/debug/_ext/100901378/WFDataTxRx.o
 .gnu.attributes
                0x00000150       0x10 build/Debug/debug/_ext/100901378/WFMgmtMsg.o
 .gnu.attributes
                0x00000160       0x10 build/Debug/debug/_ext/100901378/WFConsoleMsgs.o
 .gnu.attributes
                0x00000170       0x10 build/Debug/debug/_ext/867694782/TFTPc.o
 .gnu.attributes
                0x00000180       0x10 build/Debug/debug/_ext/867694782/Announce.o
 .gnu.attributes
                0x00000190       0x10 build/Debug/debug/_ext/867694782/CAN2TCPBridge.o
 .gnu.attributes
                0x000001a0       0x10 build/Debug/debug/_ext/867694782/FTP.o
 .gnu.attributes
                0x000001b0       0x10 build/Debug/debug/_ext/867694782/ENC28J60.o
 .gnu.attributes
                0x000001c0       0x10 build/Debug/debug/_ext/867694782/SPIRAM.o
 .gnu.attributes
                0x000001d0       0x10 build/Debug/debug/_ext/867694782/SNMP.o
 .gnu.attributes
                0x000001e0       0x10 build/Debug/debug/_ext/867694782/Hashes.o
 .gnu.attributes
                0x000001f0       0x10 build/Debug/debug/_ext/867694782/LCDBlocking.o
 .gnu.attributes
                0x00000200       0x10 build/Debug/debug/_ext/867694782/StackTsk.o
 .gnu.attributes
                0x00000210       0x10 build/Debug/debug/_ext/867694782/ARP.o
 .gnu.attributes
                0x00000220       0x10 build/Debug/debug/_ext/867694782/HTTP.o
 .gnu.attributes
                0x00000230       0x10 build/Debug/debug/_ext/867694782/SNTP.o
 .gnu.attributes
                0x00000240       0x10 build/Debug/debug/_ext/867694782/RSA.o
 .gnu.attributes
                0x00000250       0x10 build/Debug/debug/_ext/867694782/UART.o
 .gnu.attributes
                0x00000260       0x10 build/Debug/debug/_ext/867694782/ZeroconfHelper.o
 .gnu.attributes
                0x00000270       0x10 build/Debug/debug/_ext/867694782/HTTP2.o
 .gnu.attributes
                0x00000280       0x10 build/Debug/debug/_ext/867694782/ZeroconfMulticastDNS.o
 .gnu.attributes
                0x00000290       0x10 build/Debug/debug/_ext/867694782/NBNS.o
 .gnu.attributes
                0x000002a0       0x10 build/Debug/debug/_ext/867694782/ENCX24J600.o
 .gnu.attributes
                0x000002b0       0x10 build/Debug/debug/_ext/867694782/BerkeleyAPI.o
 .gnu.attributes
                0x000002c0       0x10 build/Debug/debug/_ext/867694782/TCPPerformanceTest.o
 .gnu.attributes
                0x000002d0       0x10 build/Debug/debug/_ext/867694782/UART2TCPBridge.o
 .gnu.attributes
                0x000002e0       0x10 build/Debug/debug/_ext/867694782/AutoIP.o
 .gnu.attributes
                0x000002f0       0x10 build/Debug/debug/_ext/867694782/DHCPs.o
 .gnu.attributes
                0x00000300       0x10 build/Debug/debug/_ext/867694782/DHCP.o
 .gnu.attributes
                0x00000310       0x10 build/Debug/debug/_ext/867694782/Reboot.o
 .gnu.attributes
                0x00000320       0x10 build/Debug/debug/_ext/867694782/SPIEEPROM.o
 .gnu.attributes
                0x00000330       0x10 build/Debug/debug/_ext/867694782/SSL.o
 .gnu.attributes
                0x00000340       0x10 build/Debug/debug/_ext/867694782/Delay.o
 .gnu.attributes
                0x00000350       0x10 build/Debug/debug/_ext/867694782/SPIFlash.o
 .gnu.attributes
                0x00000360       0x10 build/Debug/debug/_ext/867694782/DNSs.o
 .gnu.attributes
                0x00000370       0x10 build/Debug/debug/_ext/867694782/BigInt.o
 .gnu.attributes
                0x00000380       0x10 build/Debug/debug/_ext/867694782/UDP.o
 .gnu.attributes
                0x00000390       0x10 build/Debug/debug/_ext/867694782/DNS.o
 .gnu.attributes
                0x000003a0       0x10 build/Debug/debug/_ext/867694782/ICMP.o
 .gnu.attributes
                0x000003b0       0x10 build/Debug/debug/_ext/867694782/ETHPIC32IntMac.o
 .gnu.attributes
                0x000003c0       0x10 build/Debug/debug/_ext/867694782/ETH97J60.o
 .gnu.attributes
                0x000003d0       0x10 build/Debug/debug/_ext/867694782/Helpers.o
 .gnu.attributes
                0x000003e0       0x10 build/Debug/debug/_ext/867694782/ZeroconfLinkLocal.o
 .gnu.attributes
                0x000003f0       0x10 build/Debug/debug/_ext/867694782/IP.o
 .gnu.attributes
                0x00000400       0x10 build/Debug/debug/_ext/867694782/TCP.o
 .gnu.attributes
                0x00000410       0x10 build/Debug/debug/_ext/867694782/ETHPIC32ExtPhyDP83848.o
 .gnu.attributes
                0x00000420       0x10 build/Debug/debug/_ext/867694782/SMTP.o
 .gnu.attributes
                0x00000430       0x10 build/Debug/debug/_ext/867694782/Tick.o
 .gnu.attributes
                0x00000440       0x10 build/Debug/debug/_ext/867694782/Telnet.o
 .gnu.attributes
                0x00000450       0x10 build/Debug/debug/_ext/867694782/ETHPIC32ExtPhy.o
 .gnu.attributes
                0x00000460       0x10 build/Debug/debug/_ext/867694782/Random.o
 .gnu.attributes
                0x00000470       0x10 build/Debug/debug/_ext/867694782/MPFS.o
 .gnu.attributes
                0x00000480       0x10 build/Debug/debug/_ext/867694782/MPFS2.o
 .gnu.attributes
                0x00000490       0x10 build/Debug/debug/_ext/867694782/DynDNS.o
 .gnu.attributes
                0x000004a0       0x10 build/Debug/debug/_ext/867694782/UDPPerformanceTest.o
 .gnu.attributes
                0x000004b0       0x10 build/Debug/debug/_ext/867694782/ARCFOUR.o
 .gnu.attributes
                0x000004c0       0x10 build/Debug/debug/_ext/1472/i2c_support.o
 .gnu.attributes
                0x000004d0       0x10 build/Debug/debug/_ext/1472/main.o
 .gnu.attributes
                0x000004e0       0x10 build/Debug/debug/_ext/1472/MyTFTP.o
 .gnu.attributes
                0x000004f0       0x10 build/Debug/debug/_ext/1472/Settings.o
 .gnu.attributes
                0x00000500       0x10 build/Debug/debug/_ext/1472/HodoCrate.o
 .gnu.attributes
                0x00000510       0x10 build/Debug/debug/_ext/1472/BerkeleyTCPServerDemo.o
 .gnu.attributes
                0x00000520       0x10 build/Debug/debug/_ext/1472/PingDemo.o
 .gnu.attributes
                0x00000530       0x10 /opt/microchip/mplabc32/v2.02/bin/../lib/gcc/pic32mx/4.5.1/libgcc.a(_udivdi3.o)
 .gnu.attributes
                0x00000540       0x10 /opt/microchip/mplabc32/v2.02/bin/../lib/gcc/pic32mx/4.5.1/libgcc.a(floatunsisf.o)
 .gnu.attributes
                0x00000550       0x10 /opt/microchip/mplabc32/v2.02/bin/../lib/gcc/pic32mx/4.5.1/../../../../pic32mx/lib/libdebug.a(db_utils.o)
 .gnu.attributes
                0x00000560       0x10 /opt/microchip/mplabc32/v2.02/bin/../lib/gcc/pic32mx/4.5.1/../../../../pic32mx/lib/libc.a(atoi.o)
 .gnu.attributes
                0x00000570       0x10 /opt/microchip/mplabc32/v2.02/bin/../lib/gcc/pic32mx/4.5.1/../../../../pic32mx/lib/libc.a(c32_uart.o)
 .gnu.attributes
                0x00000580       0x10 /opt/microchip/mplabc32/v2.02/bin/../lib/gcc/pic32mx/4.5.1/../../../../pic32mx/lib/libc.a(ctype.o)
 .gnu.attributes
                0x00000590       0x10 /opt/microchip/mplabc32/v2.02/bin/../lib/gcc/pic32mx/4.5.1/../../../../pic32mx/lib/libc.a(malloc.o)
 .gnu.attributes
                0x000005a0       0x10 /opt/microchip/mplabc32/v2.02/bin/../lib/gcc/pic32mx/4.5.1/../../../../pic32mx/lib/libc.a(puts.o)
 .gnu.attributes
                0x000005b0       0x10 /opt/microchip/mplabc32/v2.02/bin/../lib/gcc/pic32mx/4.5.1/../../../../pic32mx/lib/libc.a(rand.o)
 .gnu.attributes
                0x000005c0       0x10 /opt/microchip/mplabc32/v2.02/bin/../lib/gcc/pic32mx/4.5.1/../../../../pic32mx/lib/libc.a(strtok.o)
 .gnu.attributes
                0x000005d0       0x10 /opt/microchip/mplabc32/v2.02/bin/../lib/gcc/pic32mx/4.5.1/../../../../pic32mx/lib/libc.a(printf_cdnopsuxX.eo)
 .gnu.attributes
                0x000005e0       0x10 /opt/microchip/mplabc32/v2.02/bin/../lib/gcc/pic32mx/4.5.1/../../../../pic32mx/lib/libc.a(sprintf_cdfFnopsuxX.eo)
 .gnu.attributes
                0x000005f0       0x10 /opt/microchip/mplabc32/v2.02/bin/../lib/gcc/pic32mx/4.5.1/../../../../pic32mx/lib/libc.a(sbrk.o)
 .gnu.attributes
                0x00000600       0x10 /opt/microchip/mplabc32/v2.02/bin/../lib/gcc/pic32mx/4.5.1/../../../../pic32mx/lib/libc.a(default-bootstrap-exception-handler.o)
 .gnu.attributes
                0x00000610       0x10 /opt/microchip/mplabc32/v2.02/bin/../lib/gcc/pic32mx/4.5.1/../../../../pic32mx/lib/libc.a(default-on-reset.o)
 .gnu.attributes
                0x00000620       0x10 /opt/microchip/mplabc32/v2.02/bin/../lib/gcc/pic32mx/4.5.1/../../../../pic32mx/lib/libc.a(default-on-bootstrap.o)
 .gnu.attributes
                0x00000630       0x10 /opt/microchip/mplabc32/v2.02/bin/../lib/gcc/pic32mx/4.5.1/../../../../pic32mx/lib/libc.a(_iob.o)
 .gnu.attributes
                0x00000640       0x10 /opt/microchip/mplabc32/v2.02/bin/../lib/gcc/pic32mx/4.5.1/../../../../pic32mx/lib/libc.a(_fputc_simple.o)
 .gnu.attributes
                0x00000650       0x10 /opt/microchip/mplabc32/v2.02/bin/../lib/gcc/pic32mx/4.5.1/../../../../pic32mx/lib/libc.a(errno.o)
 .gnu.attributes
                0x00000660       0x10 /opt/microchip/mplabc32/v2.02/bin/../lib/gcc/pic32mx/4.5.1/../../../../pic32mx/lib/libc.a(strcspn.o)
 .gnu.attributes
                0x00000670       0x10 /opt/microchip/mplabc32/v2.02/bin/../lib/gcc/pic32mx/4.5.1/../../../../pic32mx/lib/libc.a(strspn.o)
 .gnu.attributes
                0x00000680       0x10 /opt/microchip/mplabc32/v2.02/bin/../lib/gcc/pic32mx/4.5.1/../../../../pic32mx/lib/libc.a(doprnt_cdfFnopsuxX.eo)
 .gnu.attributes
                0x00000690       0x10 /opt/microchip/mplabc32/v2.02/bin/../lib/gcc/pic32mx/4.5.1/../../../../pic32mx/lib/libc.a(write.o)
 .gnu.attributes
                0x000006a0       0x10 /opt/microchip/mplabc32/v2.02/bin/../lib/gcc/pic32mx/4.5.1/../../../../pic32mx/lib/libc.a(_flsbuf_simple.o)
 .gnu.attributes
                0x000006b0       0x10 /opt/microchip/mplabc32/v2.02/bin/../lib/gcc/pic32mx/4.5.1/../../../../pic32mx/lib/libc.a(powers.o)
 .gnu.attributes
                0x000006c0       0x10 /opt/microchip/mplabc32/v2.02/bin/../lib/gcc/pic32mx/4.5.1/../../../../pic32mx/lib/libc.a(strchr.o)
 .gnu.attributes
                0x000006d0       0x10 /opt/microchip/mplabc32/v2.02/bin/../lib/gcc/pic32mx/4.5.1/../../../../pic32mx/lib/libe.a(_floatdisf.o)
 .gnu.attributes
                0x000006e0       0x10 /opt/microchip/mplabc32/v2.02/bin/../lib/gcc/pic32mx/4.5.1/../../../../pic32mx/lib/libmchp_peripheral.a(read_core_timer_lib.o)
 .gnu.attributes
                0x000006f0       0x10 /opt/microchip/mplabc32/v2.02/bin/../lib/gcc/pic32mx/4.5.1/../../../../pic32mx/lib/libmchp_peripheral_32MX795F512L.a(eth_ack_packet_lib.o)
 .gnu.attributes
                0x00000700       0x10 /opt/microchip/mplabc32/v2.02/bin/../lib/gcc/pic32mx/4.5.1/../../../../pic32mx/lib/libmchp_peripheral_32MX795F512L.a(eth_descriptors_add_lib.o)
 .gnu.attributes
                0x00000710       0x10 /opt/microchip/mplabc32/v2.02/bin/../lib/gcc/pic32mx/4.5.1/../../../../pic32mx/lib/libmchp_peripheral_32MX795F512L.a(eth_init_lib.o)
 .gnu.attributes
                0x00000720       0x10 /opt/microchip/mplabc32/v2.02/bin/../lib/gcc/pic32mx/4.5.1/../../../../pic32mx/lib/libmchp_peripheral_32MX795F512L.a(eth_mac_open_lib.o)
 .gnu.attributes
                0x00000730       0x10 /opt/microchip/mplabc32/v2.02/bin/../lib/gcc/pic32mx/4.5.1/../../../../pic32mx/lib/libmchp_peripheral_32MX795F512L.a(eth_mac_set_address_max_lib.o)
 .gnu.attributes
                0x00000740       0x10 /opt/microchip/mplabc32/v2.02/bin/../lib/gcc/pic32mx/4.5.1/../../../../pic32mx/lib/libmchp_peripheral_32MX795F512L.a(eth_rx_buffers_append_lib.o)
 .gnu.attributes
                0x00000750       0x10 /opt/microchip/mplabc32/v2.02/bin/../lib/gcc/pic32mx/4.5.1/../../../../pic32mx/lib/libmchp_peripheral_32MX795F512L.a(eth_rx_filters_lib.o)
 .gnu.attributes
                0x00000760       0x10 /opt/microchip/mplabc32/v2.02/bin/../lib/gcc/pic32mx/4.5.1/../../../../pic32mx/lib/libmchp_peripheral_32MX795F512L.a(eth_rx_get_packet_lib.o)
 .gnu.attributes
                0x00000770       0x10 /opt/microchip/mplabc32/v2.02/bin/../lib/gcc/pic32mx/4.5.1/../../../../pic32mx/lib/libmchp_peripheral_32MX795F512L.a(eth_rx_set_buffer_size_lib.o)
 .gnu.attributes
                0x00000780       0x10 /opt/microchip/mplabc32/v2.02/bin/../lib/gcc/pic32mx/4.5.1/../../../../pic32mx/lib/libmchp_peripheral_32MX795F512L.a(eth_tx_packet_lib.o)
 .gnu.attributes
                0x00000790       0x10 /opt/microchip/mplabc32/v2.02/bin/../lib/gcc/pic32mx/4.5.1/../../../../pic32mx/lib/libmchp_peripheral_32MX795F512L.a(_eth_append_busy_list_lib.o)
 .gnu.attributes
                0x000007a0       0x10 /opt/microchip/mplabc32/v2.02/bin/../lib/gcc/pic32mx/4.5.1/../../../../pic32mx/lib/libmchp_peripheral_32MX795F512L.a(eth_miim_access.o)
 .gnu.attributes
                0x000007b0       0x10 /opt/microchip/mplabc32/v2.02/bin/../lib/gcc/pic32mx/4.5.1/../../../../pic32mx/lib/libmchp_peripheral_32MX795F512L.a(eth_miim_legacy.o)
 .gnu.attributes
                0x000007c0       0x10 /opt/microchip/mplabc32/v2.02/bin/../lib/gcc/pic32mx/4.5.1/../../../../pic32mx/lib/libmchp_peripheral_32MX795F512L.a(soft_reset_lib.o)
 .gnu.attributes
                0x000007d0       0x10 /opt/microchip/mplabc32/v2.02/bin/../lib/gcc/pic32mx/4.5.1/../../../../pic32mx/lib/libmchp_peripheral_32MX795F512L.a(pcache.o)
 .gnu.attributes
                0x000007e0       0x10 /opt/microchip/mplabc32/v2.02/bin/../lib/gcc/pic32mx/4.5.1/../../../../pic32mx/lib/libmchp_peripheral_32MX795F512L.a(int_disable_interrupts_lib.o)
 .gnu.attributes
                0x000007f0       0x10 /opt/microchip/mplabc32/v2.02/bin/../lib/gcc/pic32mx/4.5.1/../../../../pic32mx/lib/libmchp_peripheral_32MX795F512L.a(int_restore_interrupts_lib.o)
 .gnu.attributes
                0x00000800       0x10 /opt/microchip/mplabc32/v2.02/bin/../lib/gcc/pic32mx/4.5.1/../../../../pic32mx/lib/libmchp_peripheral_32MX795F512L.a(int_enable_mv_int_lib.o)
 .gnu.attributes
                0x00000810       0x10 /opt/microchip/mplabc32/v2.02/bin/../lib/gcc/pic32mx/4.5.1/../../../../pic32mx/lib/libmchp_peripheral_32MX795F512L.a(int_tbl_lib.o)
 .gnu.attributes
                0x00000820       0x10 /opt/microchip/mplabc32/v2.02/bin/../lib/gcc/pic32mx/4.5.1/../../../../pic32mx/lib/libmchp_peripheral_32MX795F512L.a(nvm_erase_page_lib.o)
 .gnu.attributes
                0x00000830       0x10 /opt/microchip/mplabc32/v2.02/bin/../lib/gcc/pic32mx/4.5.1/../../../../pic32mx/lib/libmchp_peripheral_32MX795F512L.a(nvm_operation_lib.o)
 .gnu.attributes
                0x00000840       0x10 /opt/microchip/mplabc32/v2.02/bin/../lib/gcc/pic32mx/4.5.1/../../../../pic32mx/lib/libmchp_peripheral_32MX795F512L.a(nvm_write_row_lib.o)
 .gnu.attributes
                0x00000850       0x10 /opt/microchip/mplabc32/v2.02/bin/../lib/gcc/pic32mx/4.5.1/../../../../pic32mx/lib/libmchp_peripheral_32MX795F512L.a(port_set_pins_digital_in_lib.o)
 .gnu.attributes
                0x00000860       0x10 /opt/microchip/mplabc32/v2.02/bin/../lib/gcc/pic32mx/4.5.1/../../../../pic32mx/lib/libmchp_peripheral_32MX795F512L.a(port_set_pins_digital_out_lib.o)
 .gnu.attributes
                0x00000870       0x10 /opt/microchip/mplabc32/v2.02/bin/../lib/gcc/pic32mx/4.5.1/../../../../pic32mx/lib/libmchp_peripheral_32MX795F512L.a(_ports_tbl_libp.o)
 .gnu.attributes
                0x00000880       0x10 /opt/microchip/mplabc32/v2.02/bin/../lib/gcc/pic32mx/4.5.1/../../../../pic32mx/lib/libmchp_peripheral_32MX795F512L.a(I2CAcknowledgeByte.o)
 .gnu.attributes
                0x00000890       0x10 /opt/microchip/mplabc32/v2.02/bin/../lib/gcc/pic32mx/4.5.1/../../../../pic32mx/lib/libmchp_peripheral_32MX795F512L.a(I2CBusIsIdle.o)
 .gnu.attributes
                0x000008a0       0x10 /opt/microchip/mplabc32/v2.02/bin/../lib/gcc/pic32mx/4.5.1/../../../../pic32mx/lib/libmchp_peripheral_32MX795F512L.a(I2CByteWasAcknowledged.o)
 .gnu.attributes
                0x000008b0       0x10 /opt/microchip/mplabc32/v2.02/bin/../lib/gcc/pic32mx/4.5.1/../../../../pic32mx/lib/libmchp_peripheral_32MX795F512L.a(I2CClearStatus.o)
 .gnu.attributes
                0x000008c0       0x10 /opt/microchip/mplabc32/v2.02/bin/../lib/gcc/pic32mx/4.5.1/../../../../pic32mx/lib/libmchp_peripheral_32MX795F512L.a(I2CConfigure.o)
 .gnu.attributes
                0x000008d0       0x10 /opt/microchip/mplabc32/v2.02/bin/../lib/gcc/pic32mx/4.5.1/../../../../pic32mx/lib/libmchp_peripheral_32MX795F512L.a(I2CEnable.o)
 .gnu.attributes
                0x000008e0       0x10 /opt/microchip/mplabc32/v2.02/bin/../lib/gcc/pic32mx/4.5.1/../../../../pic32mx/lib/libmchp_peripheral_32MX795F512L.a(I2CGetByte.o)
 .gnu.attributes
                0x000008f0       0x10 /opt/microchip/mplabc32/v2.02/bin/../lib/gcc/pic32mx/4.5.1/../../../../pic32mx/lib/libmchp_peripheral_32MX795F512L.a(I2CGetStatus.o)
 .gnu.attributes
                0x00000900       0x10 /opt/microchip/mplabc32/v2.02/bin/../lib/gcc/pic32mx/4.5.1/../../../../pic32mx/lib/libmchp_peripheral_32MX795F512L.a(I2CReceivedDataIsAvailable.o)
 .gnu.attributes
                0x00000910       0x10 /opt/microchip/mplabc32/v2.02/bin/../lib/gcc/pic32mx/4.5.1/../../../../pic32mx/lib/libmchp_peripheral_32MX795F512L.a(I2CReceiverEnable.o)
 .gnu.attributes
                0x00000920       0x10 /opt/microchip/mplabc32/v2.02/bin/../lib/gcc/pic32mx/4.5.1/../../../../pic32mx/lib/libmchp_peripheral_32MX795F512L.a(I2CRepeatStart.o)
 .gnu.attributes
                0x00000930       0x10 /opt/microchip/mplabc32/v2.02/bin/../lib/gcc/pic32mx/4.5.1/../../../../pic32mx/lib/libmchp_peripheral_32MX795F512L.a(I2CSendByte.o)
 .gnu.attributes
                0x00000940       0x10 /opt/microchip/mplabc32/v2.02/bin/../lib/gcc/pic32mx/4.5.1/../../../../pic32mx/lib/libmchp_peripheral_32MX795F512L.a(I2CSetFrequency.o)
 .gnu.attributes
                0x00000950       0x10 /opt/microchip/mplabc32/v2.02/bin/../lib/gcc/pic32mx/4.5.1/../../../../pic32mx/lib/libmchp_peripheral_32MX795F512L.a(I2CStart.o)
 .gnu.attributes
                0x00000960       0x10 /opt/microchip/mplabc32/v2.02/bin/../lib/gcc/pic32mx/4.5.1/../../../../pic32mx/lib/libmchp_peripheral_32MX795F512L.a(I2CStop.o)
 .gnu.attributes
                0x00000970       0x10 /opt/microchip/mplabc32/v2.02/bin/../lib/gcc/pic32mx/4.5.1/../../../../pic32mx/lib/libmchp_peripheral_32MX795F512L.a(I2CTransmissionHasCompleted.o)
 .gnu.attributes
                0x00000980       0x10 /opt/microchip/mplabc32/v2.02/bin/../lib/gcc/pic32mx/4.5.1/../../../../pic32mx/lib/libmchp_peripheral_32MX795F512L.a(I2CTransmitterIsReady.o)
 .gnu.attributes
                0x00000990       0x10 /opt/microchip/mplabc32/v2.02/bin/../lib/gcc/pic32mx/4.5.1/../../../../pic32mx/lib/libmchp_peripheral_32MX795F512L.a(int_enable_interrupts_lib.o)
 .gnu.attributes
                0x000009a0       0x10 /opt/microchip/mplabc32/v2.02/bin/../lib/gcc/pic32mx/4.5.1/../../../../pic32mx/lib/libmchp_peripheral_32MX795F512L.a(I2CPrivate.o)
 .gnu.attributes
                0x000009b0       0x10 /opt/microchip/mplabc32/v2.02/bin/../lib/gcc/pic32mx/4.5.1/../../../../pic32mx/lib/libc.a(calloc.o)
 .gnu.attributes
                0x000009c0       0x10 /opt/microchip/mplabc32/v2.02/bin/../lib/gcc/pic32mx/4.5.1/libgcc.a(_floatundisf.o)
 .gnu.attributes
                0x000009d0       0x10 /opt/microchip/mplabc32/v2.02/bin/../lib/gcc/pic32mx/4.5.1/libgcc.a(_umoddi3.o)
OUTPUT(dist/Debug/debug/HodoFirmware.X.debug.elf elf32-tradlittlemips)
LOAD stack
LOAD data_init

.stack          0xa0010628      0x800
 .stack         0xa0010628      0x800 stack

.bss            0xa0000844     0xbd14
 .bss           0xa0000844     0x4134 build/Debug/debug/_ext/867694782/TCP.o
 .bss           0xa0004978     0x4000 build/Debug/debug/_ext/1472/main.o
 .bss           0xa0008978     0x3be0 build/Debug/debug/_ext/867694782/ETHPIC32IntMac.o

.data           0xa000c558       0xa0
 .data          0xa000c558       0xa0 /opt/microchip/mplabc32/v2.02/bin/../lib/gcc/pic32mx/4.5.1/../../../../pic32mx/lib/libc.a(_iob.o)
                0xa000c558                _iob

.bss            0xa000c5f8      0x194
 .bss           0xa000c5f8       0x8c build/Debug/debug/_ext/867694782/BerkeleyAPI.o
 .bss           0xa000c684       0x40 /opt/microchip/mplabc32/v2.02/bin/../lib/gcc/pic32mx/4.5.1/../../../../pic32mx/lib/libc.a(_iob.o)
                0xa000c684                _sibuf
                0xa000c6a4                _sobuf
 .bss           0xa000c6c4       0x34 build/Debug/debug/_ext/867694782/ARP.o
 .bss           0xa000c6f8       0x28 build/Debug/debug/_ext/867694782/DHCP.o
 .bss           0xa000c720       0x20 /opt/microchip/mplabc32/v2.02/bin/../lib/gcc/pic32mx/4.5.1/../../../../pic32mx/lib/libc.a(malloc.o)
 .bss           0xa000c740       0x1c /opt/microchip/mplabc32/v2.02/bin/../lib/gcc/pic32mx/4.5.1/../../../../pic32mx/lib/libc.a(sbrk.o)
 .bss           0xa000c75c        0xc build/Debug/debug/_ext/867694782/TFTPc.o
 .bss           0xa000c768        0xc build/Debug/debug/_ext/867694782/ICMP.o
 .bss           0xa000c774        0xc build/Debug/debug/_ext/1472/BerkeleyTCPServerDemo.o
 .bss           0xa000c780        0x8 /opt/microchip/mplabc32/v2.02/bin/../lib/gcc/pic32mx/4.5.1/../../../../pic32mx/lib/libc.a(rand.o)
 .bss           0xa000c788        0x4 /opt/microchip/mplabc32/v2.02/bin/../lib/gcc/pic32mx/4.5.1/../../../../pic32mx/lib/libc.a(strtok.o)

.bss%z1         0x00000000        0x0
 .bss           0x00000000        0x0 /opt/microchip/mplabc32/v2.02/bin/../lib/gcc/pic32mx/4.5.1/../../../../pic32mx/lib/./proc/32MX795F512L/processor.o

.data%z2        0x00000000        0x0
 .data          0x00000000        0x0 /opt/microchip/mplabc32/v2.02/bin/../lib/gcc/pic32mx/4.5.1/../../../../pic32mx/lib/./proc/32MX795F512L/processor.o

.mdebug.abi32%z3
                0x00000000        0x0
 .mdebug.abi32  0x00000000        0x0 /opt/microchip/mplabc32/v2.02/bin/../lib/gcc/pic32mx/4.5.1/libgcc.a(_umoddi3.o)

.bss%z4         0x00000000        0x0
 .bss           0x00000000        0x0 /opt/microchip/mplabc32/v2.02/bin/../lib/gcc/pic32mx/4.5.1/libgcc.a(_umoddi3.o)

.data%z5        0x00000000        0x0
 .data          0x00000000        0x0 /opt/microchip/mplabc32/v2.02/bin/../lib/gcc/pic32mx/4.5.1/libgcc.a(_umoddi3.o)

.mdebug.abi32%z6
                0x00000000        0x0
 .mdebug.abi32  0x00000000        0x0 /opt/microchip/mplabc32/v2.02/bin/../lib/gcc/pic32mx/4.5.1/libgcc.a(_floatundisf.o)

.bss%z7         0x00000000        0x0
 .bss           0x00000000        0x0 /opt/microchip/mplabc32/v2.02/bin/../lib/gcc/pic32mx/4.5.1/libgcc.a(_floatundisf.o)

.data%z8        0x00000000        0x0
 .data          0x00000000        0x0 /opt/microchip/mplabc32/v2.02/bin/../lib/gcc/pic32mx/4.5.1/libgcc.a(_floatundisf.o)

.mdebug.abi32%z9
                0x00000000        0x0
 .mdebug.abi32  0x00000000        0x0 /opt/microchip/mplabc32/v2.02/bin/../lib/gcc/pic32mx/4.5.1/../../../../pic32mx/lib/libc.a(calloc.o)

.bss%z10        0x00000000        0x0
 .bss           0x00000000        0x0 /opt/microchip/mplabc32/v2.02/bin/../lib/gcc/pic32mx/4.5.1/../../../../pic32mx/lib/libc.a(calloc.o)

.data%z11       0x00000000        0x0
 .data          0x00000000        0x0 /opt/microchip/mplabc32/v2.02/bin/../lib/gcc/pic32mx/4.5.1/../../../../pic32mx/lib/libc.a(calloc.o)

.mdebug.abi32%z12
                0x00000000        0x0
 .mdebug.abi32  0x00000000        0x0 /opt/microchip/mplabc32/v2.02/bin/../lib/gcc/pic32mx/4.5.1/../../../../pic32mx/lib/libmchp_peripheral_32MX795F512L.a(I2CPrivate.o)

.bss%z13        0x00000000        0x0
 .bss           0x00000000        0x0 /opt/microchip/mplabc32/v2.02/bin/../lib/gcc/pic32mx/4.5.1/../../../../pic32mx/lib/libmchp_peripheral_32MX795F512L.a(I2CPrivate.o)

.data%z14       0x00000000        0x0
 .data          0x00000000        0x0 /opt/microchip/mplabc32/v2.02/bin/../lib/gcc/pic32mx/4.5.1/../../../../pic32mx/lib/libmchp_peripheral_32MX795F512L.a(I2CPrivate.o)

.mdebug.abi32%z15
                0x00000000        0x0
 .mdebug.abi32  0x00000000        0x0 /opt/microchip/mplabc32/v2.02/bin/../lib/gcc/pic32mx/4.5.1/../../../../pic32mx/lib/libmchp_peripheral_32MX795F512L.a(int_enable_interrupts_lib.o)

.bss%z16        0x00000000        0x0
 .bss           0x00000000        0x0 /opt/microchip/mplabc32/v2.02/bin/../lib/gcc/pic32mx/4.5.1/../../../../pic32mx/lib/libmchp_peripheral_32MX795F512L.a(int_enable_interrupts_lib.o)

.data%z17       0x00000000        0x0
 .data          0x00000000        0x0 /opt/microchip/mplabc32/v2.02/bin/../lib/gcc/pic32mx/4.5.1/../../../../pic32mx/lib/libmchp_peripheral_32MX795F512L.a(int_enable_interrupts_lib.o)

.mdebug.abi32%z18
                0x00000000        0x0
 .mdebug.abi32  0x00000000        0x0 /opt/microchip/mplabc32/v2.02/bin/../lib/gcc/pic32mx/4.5.1/../../../../pic32mx/lib/libmchp_peripheral_32MX795F512L.a(I2CTransmitterIsReady.o)

.bss%z19        0x00000000        0x0
 .bss           0x00000000        0x0 /opt/microchip/mplabc32/v2.02/bin/../lib/gcc/pic32mx/4.5.1/../../../../pic32mx/lib/libmchp_peripheral_32MX795F512L.a(I2CTransmitterIsReady.o)

.data%z20       0x00000000        0x0
 .data          0x00000000        0x0 /opt/microchip/mplabc32/v2.02/bin/../lib/gcc/pic32mx/4.5.1/../../../../pic32mx/lib/libmchp_peripheral_32MX795F512L.a(I2CTransmitterIsReady.o)

.mdebug.abi32%z21
                0x00000000        0x0
 .mdebug.abi32  0x00000000        0x0 /opt/microchip/mplabc32/v2.02/bin/../lib/gcc/pic32mx/4.5.1/../../../../pic32mx/lib/libmchp_peripheral_32MX795F512L.a(I2CTransmissionHasCompleted.o)

.bss%z22        0x00000000        0x0
 .bss           0x00000000        0x0 /opt/microchip/mplabc32/v2.02/bin/../lib/gcc/pic32mx/4.5.1/../../../../pic32mx/lib/libmchp_peripheral_32MX795F512L.a(I2CTransmissionHasCompleted.o)

.data%z23       0x00000000        0x0
 .data          0x00000000        0x0 /opt/microchip/mplabc32/v2.02/bin/../lib/gcc/pic32mx/4.5.1/../../../../pic32mx/lib/libmchp_peripheral_32MX795F512L.a(I2CTransmissionHasCompleted.o)

.mdebug.abi32%z24
                0x00000000        0x0
 .mdebug.abi32  0x00000000        0x0 /opt/microchip/mplabc32/v2.02/bin/../lib/gcc/pic32mx/4.5.1/../../../../pic32mx/lib/libmchp_peripheral_32MX795F512L.a(I2CStop.o)

.bss%z25        0x00000000        0x0
 .bss           0x00000000        0x0 /opt/microchip/mplabc32/v2.02/bin/../lib/gcc/pic32mx/4.5.1/../../../../pic32mx/lib/libmchp_peripheral_32MX795F512L.a(I2CStop.o)

.data%z26       0x00000000        0x0
 .data          0x00000000        0x0 /opt/microchip/mplabc32/v2.02/bin/../lib/gcc/pic32mx/4.5.1/../../../../pic32mx/lib/libmchp_peripheral_32MX795F512L.a(I2CStop.o)

.mdebug.abi32%z27
                0x00000000        0x0
 .mdebug.abi32  0x00000000        0x0 /opt/microchip/mplabc32/v2.02/bin/../lib/gcc/pic32mx/4.5.1/../../../../pic32mx/lib/libmchp_peripheral_32MX795F512L.a(I2CStart.o)

.bss%z28        0x00000000        0x0
 .bss           0x00000000        0x0 /opt/microchip/mplabc32/v2.02/bin/../lib/gcc/pic32mx/4.5.1/../../../../pic32mx/lib/libmchp_peripheral_32MX795F512L.a(I2CStart.o)

.data%z29       0x00000000        0x0
 .data          0x00000000        0x0 /opt/microchip/mplabc32/v2.02/bin/../lib/gcc/pic32mx/4.5.1/../../../../pic32mx/lib/libmchp_peripheral_32MX795F512L.a(I2CStart.o)

.mdebug.abi32%z30
                0x00000000        0x0
 .mdebug.abi32  0x00000000        0x0 /opt/microchip/mplabc32/v2.02/bin/../lib/gcc/pic32mx/4.5.1/../../../../pic32mx/lib/libmchp_peripheral_32MX795F512L.a(I2CSetFrequency.o)

.bss%z31        0x00000000        0x0
 .bss           0x00000000        0x0 /opt/microchip/mplabc32/v2.02/bin/../lib/gcc/pic32mx/4.5.1/../../../../pic32mx/lib/libmchp_peripheral_32MX795F512L.a(I2CSetFrequency.o)

.data%z32       0x00000000        0x0
 .data          0x00000000        0x0 /opt/microchip/mplabc32/v2.02/bin/../lib/gcc/pic32mx/4.5.1/../../../../pic32mx/lib/libmchp_peripheral_32MX795F512L.a(I2CSetFrequency.o)

.mdebug.abi32%z33
                0x00000000        0x0
 .mdebug.abi32  0x00000000        0x0 /opt/microchip/mplabc32/v2.02/bin/../lib/gcc/pic32mx/4.5.1/../../../../pic32mx/lib/libmchp_peripheral_32MX795F512L.a(I2CSendByte.o)

.bss%z34        0x00000000        0x0
 .bss           0x00000000        0x0 /opt/microchip/mplabc32/v2.02/bin/../lib/gcc/pic32mx/4.5.1/../../../../pic32mx/lib/libmchp_peripheral_32MX795F512L.a(I2CSendByte.o)

.data%z35       0x00000000        0x0
 .data          0x00000000        0x0 /opt/microchip/mplabc32/v2.02/bin/../lib/gcc/pic32mx/4.5.1/../../../../pic32mx/lib/libmchp_peripheral_32MX795F512L.a(I2CSendByte.o)

.mdebug.abi32%z36
                0x00000000        0x0
 .mdebug.abi32  0x00000000        0x0 /opt/microchip/mplabc32/v2.02/bin/../lib/gcc/pic32mx/4.5.1/../../../../pic32mx/lib/libmchp_peripheral_32MX795F512L.a(I2CRepeatStart.o)

.bss%z37        0x00000000        0x0
 .bss           0x00000000        0x0 /opt/microchip/mplabc32/v2.02/bin/../lib/gcc/pic32mx/4.5.1/../../../../pic32mx/lib/libmchp_peripheral_32MX795F512L.a(I2CRepeatStart.o)

.data%z38       0x00000000        0x0
 .data          0x00000000        0x0 /opt/microchip/mplabc32/v2.02/bin/../lib/gcc/pic32mx/4.5.1/../../../../pic32mx/lib/libmchp_peripheral_32MX795F512L.a(I2CRepeatStart.o)

.mdebug.abi32%z39
                0x00000000        0x0
 .mdebug.abi32  0x00000000        0x0 /opt/microchip/mplabc32/v2.02/bin/../lib/gcc/pic32mx/4.5.1/../../../../pic32mx/lib/libmchp_peripheral_32MX795F512L.a(I2CReceiverEnable.o)

.bss%z40        0x00000000        0x0
 .bss           0x00000000        0x0 /opt/microchip/mplabc32/v2.02/bin/../lib/gcc/pic32mx/4.5.1/../../../../pic32mx/lib/libmchp_peripheral_32MX795F512L.a(I2CReceiverEnable.o)

.data%z41       0x00000000        0x0
 .data          0x00000000        0x0 /opt/microchip/mplabc32/v2.02/bin/../lib/gcc/pic32mx/4.5.1/../../../../pic32mx/lib/libmchp_peripheral_32MX795F512L.a(I2CReceiverEnable.o)

.mdebug.abi32%z42
                0x00000000        0x0
 .mdebug.abi32  0x00000000        0x0 /opt/microchip/mplabc32/v2.02/bin/../lib/gcc/pic32mx/4.5.1/../../../../pic32mx/lib/libmchp_peripheral_32MX795F512L.a(I2CReceivedDataIsAvailable.o)

.bss%z43        0x00000000        0x0
 .bss           0x00000000        0x0 /opt/microchip/mplabc32/v2.02/bin/../lib/gcc/pic32mx/4.5.1/../../../../pic32mx/lib/libmchp_peripheral_32MX795F512L.a(I2CReceivedDataIsAvailable.o)

.data%z44       0x00000000        0x0
 .data          0x00000000        0x0 /opt/microchip/mplabc32/v2.02/bin/../lib/gcc/pic32mx/4.5.1/../../../../pic32mx/lib/libmchp_peripheral_32MX795F512L.a(I2CReceivedDataIsAvailable.o)

.mdebug.abi32%z45
                0x00000000        0x0
 .mdebug.abi32  0x00000000        0x0 /opt/microchip/mplabc32/v2.02/bin/../lib/gcc/pic32mx/4.5.1/../../../../pic32mx/lib/libmchp_peripheral_32MX795F512L.a(I2CGetStatus.o)

.bss%z46        0x00000000        0x0
 .bss           0x00000000        0x0 /opt/microchip/mplabc32/v2.02/bin/../lib/gcc/pic32mx/4.5.1/../../../../pic32mx/lib/libmchp_peripheral_32MX795F512L.a(I2CGetStatus.o)

.data%z47       0x00000000        0x0
 .data          0x00000000        0x0 /opt/microchip/mplabc32/v2.02/bin/../lib/gcc/pic32mx/4.5.1/../../../../pic32mx/lib/libmchp_peripheral_32MX795F512L.a(I2CGetStatus.o)

.mdebug.abi32%z48
                0x00000000        0x0
 .mdebug.abi32  0x00000000        0x0 /opt/microchip/mplabc32/v2.02/bin/../lib/gcc/pic32mx/4.5.1/../../../../pic32mx/lib/libmchp_peripheral_32MX795F512L.a(I2CGetByte.o)

.bss%z49        0x00000000        0x0
 .bss           0x00000000        0x0 /opt/microchip/mplabc32/v2.02/bin/../lib/gcc/pic32mx/4.5.1/../../../../pic32mx/lib/libmchp_peripheral_32MX795F512L.a(I2CGetByte.o)

.data%z50       0x00000000        0x0
 .data          0x00000000        0x0 /opt/microchip/mplabc32/v2.02/bin/../lib/gcc/pic32mx/4.5.1/../../../../pic32mx/lib/libmchp_peripheral_32MX795F512L.a(I2CGetByte.o)

.mdebug.abi32%z51
                0x00000000        0x0
 .mdebug.abi32  0x00000000        0x0 /opt/microchip/mplabc32/v2.02/bin/../lib/gcc/pic32mx/4.5.1/../../../../pic32mx/lib/libmchp_peripheral_32MX795F512L.a(I2CEnable.o)

.bss%z52        0x00000000        0x0
 .bss           0x00000000        0x0 /opt/microchip/mplabc32/v2.02/bin/../lib/gcc/pic32mx/4.5.1/../../../../pic32mx/lib/libmchp_peripheral_32MX795F512L.a(I2CEnable.o)

.data%z53       0x00000000        0x0
 .data          0x00000000        0x0 /opt/microchip/mplabc32/v2.02/bin/../lib/gcc/pic32mx/4.5.1/../../../../pic32mx/lib/libmchp_peripheral_32MX795F512L.a(I2CEnable.o)

.mdebug.abi32%z54
                0x00000000        0x0
 .mdebug.abi32  0x00000000        0x0 /opt/microchip/mplabc32/v2.02/bin/../lib/gcc/pic32mx/4.5.1/../../../../pic32mx/lib/libmchp_peripheral_32MX795F512L.a(I2CConfigure.o)

.bss%z55        0x00000000        0x0
 .bss           0x00000000        0x0 /opt/microchip/mplabc32/v2.02/bin/../lib/gcc/pic32mx/4.5.1/../../../../pic32mx/lib/libmchp_peripheral_32MX795F512L.a(I2CConfigure.o)

.data%z56       0x00000000        0x0
 .data          0x00000000        0x0 /opt/microchip/mplabc32/v2.02/bin/../lib/gcc/pic32mx/4.5.1/../../../../pic32mx/lib/libmchp_peripheral_32MX795F512L.a(I2CConfigure.o)

.mdebug.abi32%z57
                0x00000000        0x0
 .mdebug.abi32  0x00000000        0x0 /opt/microchip/mplabc32/v2.02/bin/../lib/gcc/pic32mx/4.5.1/../../../../pic32mx/lib/libmchp_peripheral_32MX795F512L.a(I2CClearStatus.o)

.bss%z58        0x00000000        0x0
 .bss           0x00000000        0x0 /opt/microchip/mplabc32/v2.02/bin/../lib/gcc/pic32mx/4.5.1/../../../../pic32mx/lib/libmchp_peripheral_32MX795F512L.a(I2CClearStatus.o)

.data%z59       0x00000000        0x0
 .data          0x00000000        0x0 /opt/microchip/mplabc32/v2.02/bin/../lib/gcc/pic32mx/4.5.1/../../../../pic32mx/lib/libmchp_peripheral_32MX795F512L.a(I2CClearStatus.o)

.mdebug.abi32%z60
                0x00000000        0x0
 .mdebug.abi32  0x00000000        0x0 /opt/microchip/mplabc32/v2.02/bin/../lib/gcc/pic32mx/4.5.1/../../../../pic32mx/lib/libmchp_peripheral_32MX795F512L.a(I2CByteWasAcknowledged.o)

.bss%z61        0x00000000        0x0
 .bss           0x00000000        0x0 /opt/microchip/mplabc32/v2.02/bin/../lib/gcc/pic32mx/4.5.1/../../../../pic32mx/lib/libmchp_peripheral_32MX795F512L.a(I2CByteWasAcknowledged.o)

.data%z62       0x00000000        0x0
 .data          0x00000000        0x0 /opt/microchip/mplabc32/v2.02/bin/../lib/gcc/pic32mx/4.5.1/../../../../pic32mx/lib/libmchp_peripheral_32MX795F512L.a(I2CByteWasAcknowledged.o)

.mdebug.abi32%z63
                0x00000000        0x0
 .mdebug.abi32  0x00000000        0x0 /opt/microchip/mplabc32/v2.02/bin/../lib/gcc/pic32mx/4.5.1/../../../../pic32mx/lib/libmchp_peripheral_32MX795F512L.a(I2CBusIsIdle.o)

.bss%z64        0x00000000        0x0
 .bss           0x00000000        0x0 /opt/microchip/mplabc32/v2.02/bin/../lib/gcc/pic32mx/4.5.1/../../../../pic32mx/lib/libmchp_peripheral_32MX795F512L.a(I2CBusIsIdle.o)

.data%z65       0x00000000        0x0
 .data          0x00000000        0x0 /opt/microchip/mplabc32/v2.02/bin/../lib/gcc/pic32mx/4.5.1/../../../../pic32mx/lib/libmchp_peripheral_32MX795F512L.a(I2CBusIsIdle.o)

.mdebug.abi32%z66
                0x00000000        0x0
 .mdebug.abi32  0x00000000        0x0 /opt/microchip/mplabc32/v2.02/bin/../lib/gcc/pic32mx/4.5.1/../../../../pic32mx/lib/libmchp_peripheral_32MX795F512L.a(I2CAcknowledgeByte.o)

.bss%z67        0x00000000        0x0
 .bss           0x00000000        0x0 /opt/microchip/mplabc32/v2.02/bin/../lib/gcc/pic32mx/4.5.1/../../../../pic32mx/lib/libmchp_peripheral_32MX795F512L.a(I2CAcknowledgeByte.o)

.data%z68       0x00000000        0x0
 .data          0x00000000        0x0 /opt/microchip/mplabc32/v2.02/bin/../lib/gcc/pic32mx/4.5.1/../../../../pic32mx/lib/libmchp_peripheral_32MX795F512L.a(I2CAcknowledgeByte.o)

.mdebug.abi32%z69
                0x00000000        0x0
 .mdebug.abi32  0x00000000        0x0 /opt/microchip/mplabc32/v2.02/bin/../lib/gcc/pic32mx/4.5.1/../../../../pic32mx/lib/libmchp_peripheral_32MX795F512L.a(_ports_tbl_libp.o)

.bss%z70        0x00000000        0x0
 .bss           0x00000000        0x0 /opt/microchip/mplabc32/v2.02/bin/../lib/gcc/pic32mx/4.5.1/../../../../pic32mx/lib/libmchp_peripheral_32MX795F512L.a(_ports_tbl_libp.o)

.data%z71       0x00000000        0x0
 .data          0x00000000        0x0 /opt/microchip/mplabc32/v2.02/bin/../lib/gcc/pic32mx/4.5.1/../../../../pic32mx/lib/libmchp_peripheral_32MX795F512L.a(_ports_tbl_libp.o)

.mdebug.abi32%z72
                0x00000000        0x0
 .mdebug.abi32  0x00000000        0x0 /opt/microchip/mplabc32/v2.02/bin/../lib/gcc/pic32mx/4.5.1/../../../../pic32mx/lib/libmchp_peripheral_32MX795F512L.a(port_set_pins_digital_out_lib.o)

.bss%z73        0x00000000        0x0
 .bss           0x00000000        0x0 /opt/microchip/mplabc32/v2.02/bin/../lib/gcc/pic32mx/4.5.1/../../../../pic32mx/lib/libmchp_peripheral_32MX795F512L.a(port_set_pins_digital_out_lib.o)

.data%z74       0x00000000        0x0
 .data          0x00000000        0x0 /opt/microchip/mplabc32/v2.02/bin/../lib/gcc/pic32mx/4.5.1/../../../../pic32mx/lib/libmchp_peripheral_32MX795F512L.a(port_set_pins_digital_out_lib.o)

.mdebug.abi32%z75
                0x00000000        0x0
 .mdebug.abi32  0x00000000        0x0 /opt/microchip/mplabc32/v2.02/bin/../lib/gcc/pic32mx/4.5.1/../../../../pic32mx/lib/libmchp_peripheral_32MX795F512L.a(port_set_pins_digital_in_lib.o)

.bss%z76        0x00000000        0x0
 .bss           0x00000000        0x0 /opt/microchip/mplabc32/v2.02/bin/../lib/gcc/pic32mx/4.5.1/../../../../pic32mx/lib/libmchp_peripheral_32MX795F512L.a(port_set_pins_digital_in_lib.o)

.data%z77       0x00000000        0x0
 .data          0x00000000        0x0 /opt/microchip/mplabc32/v2.02/bin/../lib/gcc/pic32mx/4.5.1/../../../../pic32mx/lib/libmchp_peripheral_32MX795F512L.a(port_set_pins_digital_in_lib.o)

.mdebug.abi32%z78
                0x00000000        0x0
 .mdebug.abi32  0x00000000        0x0 /opt/microchip/mplabc32/v2.02/bin/../lib/gcc/pic32mx/4.5.1/../../../../pic32mx/lib/libmchp_peripheral_32MX795F512L.a(nvm_write_row_lib.o)

.bss%z79        0x00000000        0x0
 .bss           0x00000000        0x0 /opt/microchip/mplabc32/v2.02/bin/../lib/gcc/pic32mx/4.5.1/../../../../pic32mx/lib/libmchp_peripheral_32MX795F512L.a(nvm_write_row_lib.o)

.data%z80       0x00000000        0x0
 .data          0x00000000        0x0 /opt/microchip/mplabc32/v2.02/bin/../lib/gcc/pic32mx/4.5.1/../../../../pic32mx/lib/libmchp_peripheral_32MX795F512L.a(nvm_write_row_lib.o)

.mdebug.abi32%z81
                0x00000000        0x0
 .mdebug.abi32  0x00000000        0x0 /opt/microchip/mplabc32/v2.02/bin/../lib/gcc/pic32mx/4.5.1/../../../../pic32mx/lib/libmchp_peripheral_32MX795F512L.a(nvm_operation_lib.o)

.bss%z82        0x00000000        0x0
 .bss           0x00000000        0x0 /opt/microchip/mplabc32/v2.02/bin/../lib/gcc/pic32mx/4.5.1/../../../../pic32mx/lib/libmchp_peripheral_32MX795F512L.a(nvm_operation_lib.o)

.data%z83       0x00000000        0x0
 .data          0x00000000        0x0 /opt/microchip/mplabc32/v2.02/bin/../lib/gcc/pic32mx/4.5.1/../../../../pic32mx/lib/libmchp_peripheral_32MX795F512L.a(nvm_operation_lib.o)

.mdebug.abi32%z84
                0x00000000        0x0
 .mdebug.abi32  0x00000000        0x0 /opt/microchip/mplabc32/v2.02/bin/../lib/gcc/pic32mx/4.5.1/../../../../pic32mx/lib/libmchp_peripheral_32MX795F512L.a(nvm_erase_page_lib.o)

.bss%z85        0x00000000        0x0
 .bss           0x00000000        0x0 /opt/microchip/mplabc32/v2.02/bin/../lib/gcc/pic32mx/4.5.1/../../../../pic32mx/lib/libmchp_peripheral_32MX795F512L.a(nvm_erase_page_lib.o)

.data%z86       0x00000000        0x0
 .data          0x00000000        0x0 /opt/microchip/mplabc32/v2.02/bin/../lib/gcc/pic32mx/4.5.1/../../../../pic32mx/lib/libmchp_peripheral_32MX795F512L.a(nvm_erase_page_lib.o)

.mdebug.abi32%z87
                0x00000000        0x0
 .mdebug.abi32  0x00000000        0x0 /opt/microchip/mplabc32/v2.02/bin/../lib/gcc/pic32mx/4.5.1/../../../../pic32mx/lib/libmchp_peripheral_32MX795F512L.a(int_tbl_lib.o)

.bss%z88        0x00000000        0x0
 .bss           0x00000000        0x0 /opt/microchip/mplabc32/v2.02/bin/../lib/gcc/pic32mx/4.5.1/../../../../pic32mx/lib/libmchp_peripheral_32MX795F512L.a(int_tbl_lib.o)

.data%z89       0x00000000        0x0
 .data          0x00000000        0x0 /opt/microchip/mplabc32/v2.02/bin/../lib/gcc/pic32mx/4.5.1/../../../../pic32mx/lib/libmchp_peripheral_32MX795F512L.a(int_tbl_lib.o)

.mdebug.abi32%z90
                0x00000000        0x0
 .mdebug.abi32  0x00000000        0x0 /opt/microchip/mplabc32/v2.02/bin/../lib/gcc/pic32mx/4.5.1/../../../../pic32mx/lib/libmchp_peripheral_32MX795F512L.a(int_enable_mv_int_lib.o)

.bss%z91        0x00000000        0x0
 .bss           0x00000000        0x0 /opt/microchip/mplabc32/v2.02/bin/../lib/gcc/pic32mx/4.5.1/../../../../pic32mx/lib/libmchp_peripheral_32MX795F512L.a(int_enable_mv_int_lib.o)

.data%z92       0x00000000        0x0
 .data          0x00000000        0x0 /opt/microchip/mplabc32/v2.02/bin/../lib/gcc/pic32mx/4.5.1/../../../../pic32mx/lib/libmchp_peripheral_32MX795F512L.a(int_enable_mv_int_lib.o)

.mdebug.abi32%z93
                0x00000000        0x0
 .mdebug.abi32  0x00000000        0x0 /opt/microchip/mplabc32/v2.02/bin/../lib/gcc/pic32mx/4.5.1/../../../../pic32mx/lib/libmchp_peripheral_32MX795F512L.a(int_restore_interrupts_lib.o)

.bss%z94        0x00000000        0x0
 .bss           0x00000000        0x0 /opt/microchip/mplabc32/v2.02/bin/../lib/gcc/pic32mx/4.5.1/../../../../pic32mx/lib/libmchp_peripheral_32MX795F512L.a(int_restore_interrupts_lib.o)

.data%z95       0x00000000        0x0
 .data          0x00000000        0x0 /opt/microchip/mplabc32/v2.02/bin/../lib/gcc/pic32mx/4.5.1/../../../../pic32mx/lib/libmchp_peripheral_32MX795F512L.a(int_restore_interrupts_lib.o)

.mdebug.abi32%z96
                0x00000000        0x0
 .mdebug.abi32  0x00000000        0x0 /opt/microchip/mplabc32/v2.02/bin/../lib/gcc/pic32mx/4.5.1/../../../../pic32mx/lib/libmchp_peripheral_32MX795F512L.a(int_disable_interrupts_lib.o)

.bss%z97        0x00000000        0x0
 .bss           0x00000000        0x0 /opt/microchip/mplabc32/v2.02/bin/../lib/gcc/pic32mx/4.5.1/../../../../pic32mx/lib/libmchp_peripheral_32MX795F512L.a(int_disable_interrupts_lib.o)

.data%z98       0x00000000        0x0
 .data          0x00000000        0x0 /opt/microchip/mplabc32/v2.02/bin/../lib/gcc/pic32mx/4.5.1/../../../../pic32mx/lib/libmchp_peripheral_32MX795F512L.a(int_disable_interrupts_lib.o)

.mdebug.abi32%z99
                0x00000000        0x0
 .mdebug.abi32  0x00000000        0x0 /opt/microchip/mplabc32/v2.02/bin/../lib/gcc/pic32mx/4.5.1/../../../../pic32mx/lib/libmchp_peripheral_32MX795F512L.a(pcache.o)

.bss%z100       0x00000000        0x0
 .bss           0x00000000        0x0 /opt/microchip/mplabc32/v2.02/bin/../lib/gcc/pic32mx/4.5.1/../../../../pic32mx/lib/libmchp_peripheral_32MX795F512L.a(pcache.o)

.data%z101      0x00000000        0x0
 .data          0x00000000        0x0 /opt/microchip/mplabc32/v2.02/bin/../lib/gcc/pic32mx/4.5.1/../../../../pic32mx/lib/libmchp_peripheral_32MX795F512L.a(pcache.o)

.mdebug.abi32%z102
                0x00000000        0x0
 .mdebug.abi32  0x00000000        0x0 /opt/microchip/mplabc32/v2.02/bin/../lib/gcc/pic32mx/4.5.1/../../../../pic32mx/lib/libmchp_peripheral_32MX795F512L.a(soft_reset_lib.o)

.bss%z103       0x00000000        0x0
 .bss           0x00000000        0x0 /opt/microchip/mplabc32/v2.02/bin/../lib/gcc/pic32mx/4.5.1/../../../../pic32mx/lib/libmchp_peripheral_32MX795F512L.a(soft_reset_lib.o)

.data%z104      0x00000000        0x0
 .data          0x00000000        0x0 /opt/microchip/mplabc32/v2.02/bin/../lib/gcc/pic32mx/4.5.1/../../../../pic32mx/lib/libmchp_peripheral_32MX795F512L.a(soft_reset_lib.o)

.mdebug.abi32%z105
                0x00000000        0x0
 .mdebug.abi32  0x00000000        0x0 /opt/microchip/mplabc32/v2.02/bin/../lib/gcc/pic32mx/4.5.1/../../../../pic32mx/lib/libmchp_peripheral_32MX795F512L.a(eth_miim_legacy.o)

.bss%z106       0x00000000        0x0
 .bss           0x00000000        0x0 /opt/microchip/mplabc32/v2.02/bin/../lib/gcc/pic32mx/4.5.1/../../../../pic32mx/lib/libmchp_peripheral_32MX795F512L.a(eth_miim_legacy.o)

.data%z107      0x00000000        0x0
 .data          0x00000000        0x0 /opt/microchip/mplabc32/v2.02/bin/../lib/gcc/pic32mx/4.5.1/../../../../pic32mx/lib/libmchp_peripheral_32MX795F512L.a(eth_miim_legacy.o)

.mdebug.abi32%z108
                0x00000000        0x0
 .mdebug.abi32  0x00000000        0x0 /opt/microchip/mplabc32/v2.02/bin/../lib/gcc/pic32mx/4.5.1/../../../../pic32mx/lib/libmchp_peripheral_32MX795F512L.a(eth_miim_access.o)

.bss%z109       0x00000000        0x0
 .bss           0x00000000        0x0 /opt/microchip/mplabc32/v2.02/bin/../lib/gcc/pic32mx/4.5.1/../../../../pic32mx/lib/libmchp_peripheral_32MX795F512L.a(eth_miim_access.o)

.data%z110      0x00000000        0x0
 .data          0x00000000        0x0 /opt/microchip/mplabc32/v2.02/bin/../lib/gcc/pic32mx/4.5.1/../../../../pic32mx/lib/libmchp_peripheral_32MX795F512L.a(eth_miim_access.o)

.mdebug.abi32%z111
                0x00000000        0x0
 .mdebug.abi32  0x00000000        0x0 /opt/microchip/mplabc32/v2.02/bin/../lib/gcc/pic32mx/4.5.1/../../../../pic32mx/lib/libmchp_peripheral_32MX795F512L.a(_eth_append_busy_list_lib.o)

.bss%z112       0x00000000        0x0
 .bss           0x00000000        0x0 /opt/microchip/mplabc32/v2.02/bin/../lib/gcc/pic32mx/4.5.1/../../../../pic32mx/lib/libmchp_peripheral_32MX795F512L.a(_eth_append_busy_list_lib.o)

.data%z113      0x00000000        0x0
 .data          0x00000000        0x0 /opt/microchip/mplabc32/v2.02/bin/../lib/gcc/pic32mx/4.5.1/../../../../pic32mx/lib/libmchp_peripheral_32MX795F512L.a(_eth_append_busy_list_lib.o)

.mdebug.abi32%z114
                0x00000000        0x0
 .mdebug.abi32  0x00000000        0x0 /opt/microchip/mplabc32/v2.02/bin/../lib/gcc/pic32mx/4.5.1/../../../../pic32mx/lib/libmchp_peripheral_32MX795F512L.a(eth_tx_packet_lib.o)

.bss%z115       0x00000000        0x0
 .bss           0x00000000        0x0 /opt/microchip/mplabc32/v2.02/bin/../lib/gcc/pic32mx/4.5.1/../../../../pic32mx/lib/libmchp_peripheral_32MX795F512L.a(eth_tx_packet_lib.o)

.data%z116      0x00000000        0x0
 .data          0x00000000        0x0 /opt/microchip/mplabc32/v2.02/bin/../lib/gcc/pic32mx/4.5.1/../../../../pic32mx/lib/libmchp_peripheral_32MX795F512L.a(eth_tx_packet_lib.o)

.mdebug.abi32%z117
                0x00000000        0x0
 .mdebug.abi32  0x00000000        0x0 /opt/microchip/mplabc32/v2.02/bin/../lib/gcc/pic32mx/4.5.1/../../../../pic32mx/lib/libmchp_peripheral_32MX795F512L.a(eth_rx_set_buffer_size_lib.o)

.bss%z118       0x00000000        0x0
 .bss           0x00000000        0x0 /opt/microchip/mplabc32/v2.02/bin/../lib/gcc/pic32mx/4.5.1/../../../../pic32mx/lib/libmchp_peripheral_32MX795F512L.a(eth_rx_set_buffer_size_lib.o)

.data%z119      0x00000000        0x0
 .data          0x00000000        0x0 /opt/microchip/mplabc32/v2.02/bin/../lib/gcc/pic32mx/4.5.1/../../../../pic32mx/lib/libmchp_peripheral_32MX795F512L.a(eth_rx_set_buffer_size_lib.o)

.mdebug.abi32%z120
                0x00000000        0x0
 .mdebug.abi32  0x00000000        0x0 /opt/microchip/mplabc32/v2.02/bin/../lib/gcc/pic32mx/4.5.1/../../../../pic32mx/lib/libmchp_peripheral_32MX795F512L.a(eth_rx_get_packet_lib.o)

.bss%z121       0x00000000        0x0
 .bss           0x00000000        0x0 /opt/microchip/mplabc32/v2.02/bin/../lib/gcc/pic32mx/4.5.1/../../../../pic32mx/lib/libmchp_peripheral_32MX795F512L.a(eth_rx_get_packet_lib.o)

.data%z122      0x00000000        0x0
 .data          0x00000000        0x0 /opt/microchip/mplabc32/v2.02/bin/../lib/gcc/pic32mx/4.5.1/../../../../pic32mx/lib/libmchp_peripheral_32MX795F512L.a(eth_rx_get_packet_lib.o)

.mdebug.abi32%z123
                0x00000000        0x0
 .mdebug.abi32  0x00000000        0x0 /opt/microchip/mplabc32/v2.02/bin/../lib/gcc/pic32mx/4.5.1/../../../../pic32mx/lib/libmchp_peripheral_32MX795F512L.a(eth_rx_filters_lib.o)

.bss%z124       0x00000000        0x0
 .bss           0x00000000        0x0 /opt/microchip/mplabc32/v2.02/bin/../lib/gcc/pic32mx/4.5.1/../../../../pic32mx/lib/libmchp_peripheral_32MX795F512L.a(eth_rx_filters_lib.o)

.data%z125      0x00000000        0x0
 .data          0x00000000        0x0 /opt/microchip/mplabc32/v2.02/bin/../lib/gcc/pic32mx/4.5.1/../../../../pic32mx/lib/libmchp_peripheral_32MX795F512L.a(eth_rx_filters_lib.o)

.mdebug.abi32%z126
                0x00000000        0x0
 .mdebug.abi32  0x00000000        0x0 /opt/microchip/mplabc32/v2.02/bin/../lib/gcc/pic32mx/4.5.1/../../../../pic32mx/lib/libmchp_peripheral_32MX795F512L.a(eth_rx_buffers_append_lib.o)

.bss%z127       0x00000000        0x0
 .bss           0x00000000        0x0 /opt/microchip/mplabc32/v2.02/bin/../lib/gcc/pic32mx/4.5.1/../../../../pic32mx/lib/libmchp_peripheral_32MX795F512L.a(eth_rx_buffers_append_lib.o)

.data%z128      0x00000000        0x0
 .data          0x00000000        0x0 /opt/microchip/mplabc32/v2.02/bin/../lib/gcc/pic32mx/4.5.1/../../../../pic32mx/lib/libmchp_peripheral_32MX795F512L.a(eth_rx_buffers_append_lib.o)

.mdebug.abi32%z129
                0x00000000        0x0
 .mdebug.abi32  0x00000000        0x0 /opt/microchip/mplabc32/v2.02/bin/../lib/gcc/pic32mx/4.5.1/../../../../pic32mx/lib/libmchp_peripheral_32MX795F512L.a(eth_mac_set_address_max_lib.o)

.bss%z130       0x00000000        0x0
 .bss           0x00000000        0x0 /opt/microchip/mplabc32/v2.02/bin/../lib/gcc/pic32mx/4.5.1/../../../../pic32mx/lib/libmchp_peripheral_32MX795F512L.a(eth_mac_set_address_max_lib.o)

.data%z131      0x00000000        0x0
 .data          0x00000000        0x0 /opt/microchip/mplabc32/v2.02/bin/../lib/gcc/pic32mx/4.5.1/../../../../pic32mx/lib/libmchp_peripheral_32MX795F512L.a(eth_mac_set_address_max_lib.o)

.mdebug.abi32%z132
                0x00000000        0x0
 .mdebug.abi32  0x00000000        0x0 /opt/microchip/mplabc32/v2.02/bin/../lib/gcc/pic32mx/4.5.1/../../../../pic32mx/lib/libmchp_peripheral_32MX795F512L.a(eth_mac_open_lib.o)

.bss%z133       0x00000000        0x0
 .bss           0x00000000        0x0 /opt/microchip/mplabc32/v2.02/bin/../lib/gcc/pic32mx/4.5.1/../../../../pic32mx/lib/libmchp_peripheral_32MX795F512L.a(eth_mac_open_lib.o)

.data%z134      0x00000000        0x0
 .data          0x00000000        0x0 /opt/microchip/mplabc32/v2.02/bin/../lib/gcc/pic32mx/4.5.1/../../../../pic32mx/lib/libmchp_peripheral_32MX795F512L.a(eth_mac_open_lib.o)

.mdebug.abi32%z135
                0x00000000        0x0
 .mdebug.abi32  0x00000000        0x0 /opt/microchip/mplabc32/v2.02/bin/../lib/gcc/pic32mx/4.5.1/../../../../pic32mx/lib/libmchp_peripheral_32MX795F512L.a(eth_init_lib.o)

.bss%z136       0x00000000        0x0
 .bss           0x00000000        0x0 /opt/microchip/mplabc32/v2.02/bin/../lib/gcc/pic32mx/4.5.1/../../../../pic32mx/lib/libmchp_peripheral_32MX795F512L.a(eth_init_lib.o)

.data%z137      0x00000000        0x0
 .data          0x00000000        0x0 /opt/microchip/mplabc32/v2.02/bin/../lib/gcc/pic32mx/4.5.1/../../../../pic32mx/lib/libmchp_peripheral_32MX795F512L.a(eth_init_lib.o)

.mdebug.abi32%z138
                0x00000000        0x0
 .mdebug.abi32  0x00000000        0x0 /opt/microchip/mplabc32/v2.02/bin/../lib/gcc/pic32mx/4.5.1/../../../../pic32mx/lib/libmchp_peripheral_32MX795F512L.a(eth_descriptors_add_lib.o)

.bss%z139       0x00000000        0x0
 .bss           0x00000000        0x0 /opt/microchip/mplabc32/v2.02/bin/../lib/gcc/pic32mx/4.5.1/../../../../pic32mx/lib/libmchp_peripheral_32MX795F512L.a(eth_descriptors_add_lib.o)

.data%z140      0x00000000        0x0
 .data          0x00000000        0x0 /opt/microchip/mplabc32/v2.02/bin/../lib/gcc/pic32mx/4.5.1/../../../../pic32mx/lib/libmchp_peripheral_32MX795F512L.a(eth_descriptors_add_lib.o)

.mdebug.abi32%z141
                0x00000000        0x0
 .mdebug.abi32  0x00000000        0x0 /opt/microchip/mplabc32/v2.02/bin/../lib/gcc/pic32mx/4.5.1/../../../../pic32mx/lib/libmchp_peripheral_32MX795F512L.a(eth_ack_packet_lib.o)

.bss%z142       0x00000000        0x0
 .bss           0x00000000        0x0 /opt/microchip/mplabc32/v2.02/bin/../lib/gcc/pic32mx/4.5.1/../../../../pic32mx/lib/libmchp_peripheral_32MX795F512L.a(eth_ack_packet_lib.o)

.data%z143      0x00000000        0x0
 .data          0x00000000        0x0 /opt/microchip/mplabc32/v2.02/bin/../lib/gcc/pic32mx/4.5.1/../../../../pic32mx/lib/libmchp_peripheral_32MX795F512L.a(eth_ack_packet_lib.o)

.mdebug.abi32%z144
                0x00000000        0x0
 .mdebug.abi32  0x00000000        0x0 /opt/microchip/mplabc32/v2.02/bin/../lib/gcc/pic32mx/4.5.1/../../../../pic32mx/lib/libmchp_peripheral.a(read_core_timer_lib.o)

.bss%z145       0x00000000        0x0
 .bss           0x00000000        0x0 /opt/microchip/mplabc32/v2.02/bin/../lib/gcc/pic32mx/4.5.1/../../../../pic32mx/lib/libmchp_peripheral.a(read_core_timer_lib.o)

.data%z146      0x00000000        0x0
 .data          0x00000000        0x0 /opt/microchip/mplabc32/v2.02/bin/../lib/gcc/pic32mx/4.5.1/../../../../pic32mx/lib/libmchp_peripheral.a(read_core_timer_lib.o)

.mdebug.abi32%z147
                0x00000000        0x0
 .mdebug.abi32  0x00000000        0x0 /opt/microchip/mplabc32/v2.02/bin/../lib/gcc/pic32mx/4.5.1/../../../../pic32mx/lib/libe.a(_floatdisf.o)

.bss%z148       0x00000000        0x0
 .bss           0x00000000        0x0 /opt/microchip/mplabc32/v2.02/bin/../lib/gcc/pic32mx/4.5.1/../../../../pic32mx/lib/libe.a(_floatdisf.o)

.data%z149      0x00000000        0x0
 .data          0x00000000        0x0 /opt/microchip/mplabc32/v2.02/bin/../lib/gcc/pic32mx/4.5.1/../../../../pic32mx/lib/libe.a(_floatdisf.o)

.bss%z150       0x00000000        0x0
 .bss           0x00000000        0x0 /opt/microchip/mplabc32/v2.02/bin/../lib/gcc/pic32mx/4.5.1/../../../../pic32mx/lib/libm.a(fp32.o)

.data%z151      0x00000000        0x0
 .data          0x00000000        0x0 /opt/microchip/mplabc32/v2.02/bin/../lib/gcc/pic32mx/4.5.1/../../../../pic32mx/lib/libm.a(fp32.o)

.bss%z152       0x00000000        0x0
 .bss           0x00000000        0x0 /opt/microchip/mplabc32/v2.02/bin/../lib/gcc/pic32mx/4.5.1/../../../../pic32mx/lib/libm.a(fpmod32.o)

.data%z153      0x00000000        0x0
 .data          0x00000000        0x0 /opt/microchip/mplabc32/v2.02/bin/../lib/gcc/pic32mx/4.5.1/../../../../pic32mx/lib/libm.a(fpmod32.o)

.mdebug.abi32%z154
                0x00000000        0x0
 .mdebug.abi32  0x00000000        0x0 /opt/microchip/mplabc32/v2.02/bin/../lib/gcc/pic32mx/4.5.1/../../../../pic32mx/lib/libc.a(strchr.o)

.bss%z155       0x00000000        0x0
 .bss           0x00000000        0x0 /opt/microchip/mplabc32/v2.02/bin/../lib/gcc/pic32mx/4.5.1/../../../../pic32mx/lib/libc.a(strchr.o)

.data%z156      0x00000000        0x0
 .data          0x00000000        0x0 /opt/microchip/mplabc32/v2.02/bin/../lib/gcc/pic32mx/4.5.1/../../../../pic32mx/lib/libc.a(strchr.o)

.mdebug.abi32%z157
                0x00000000        0x0
 .mdebug.abi32  0x00000000        0x0 /opt/microchip/mplabc32/v2.02/bin/../lib/gcc/pic32mx/4.5.1/../../../../pic32mx/lib/libc.a(powers.o)

.bss%z158       0x00000000        0x0
 .bss           0x00000000        0x0 /opt/microchip/mplabc32/v2.02/bin/../lib/gcc/pic32mx/4.5.1/../../../../pic32mx/lib/libc.a(powers.o)

.data%z159      0x00000000        0x0
 .data          0x00000000        0x0 /opt/microchip/mplabc32/v2.02/bin/../lib/gcc/pic32mx/4.5.1/../../../../pic32mx/lib/libc.a(powers.o)

.mdebug.abi32%z160
                0x00000000        0x0
 .mdebug.abi32  0x00000000        0x0 /opt/microchip/mplabc32/v2.02/bin/../lib/gcc/pic32mx/4.5.1/../../../../pic32mx/lib/libc.a(_flsbuf_simple.o)

.bss%z161       0x00000000        0x0
 .bss           0x00000000        0x0 /opt/microchip/mplabc32/v2.02/bin/../lib/gcc/pic32mx/4.5.1/../../../../pic32mx/lib/libc.a(_flsbuf_simple.o)

.data%z162      0x00000000        0x0
 .data          0x00000000        0x0 /opt/microchip/mplabc32/v2.02/bin/../lib/gcc/pic32mx/4.5.1/../../../../pic32mx/lib/libc.a(_flsbuf_simple.o)

.mdebug.abi32%z163
                0x00000000        0x0
 .mdebug.abi32  0x00000000        0x0 /opt/microchip/mplabc32/v2.02/bin/../lib/gcc/pic32mx/4.5.1/../../../../pic32mx/lib/libc.a(write.o)

.bss%z164       0x00000000        0x0
 .bss           0x00000000        0x0 /opt/microchip/mplabc32/v2.02/bin/../lib/gcc/pic32mx/4.5.1/../../../../pic32mx/lib/libc.a(write.o)

.data%z165      0x00000000        0x0
 .data          0x00000000        0x0 /opt/microchip/mplabc32/v2.02/bin/../lib/gcc/pic32mx/4.5.1/../../../../pic32mx/lib/libc.a(write.o)

.mdebug.abi32%z166
                0x00000000        0x0
 .mdebug.abi32  0x00000000        0x0 /opt/microchip/mplabc32/v2.02/bin/../lib/gcc/pic32mx/4.5.1/../../../../pic32mx/lib/libc.a(doprnt_cdfFnopsuxX.eo)

.bss%z167       0x00000000        0x0
 .bss           0x00000000        0x0 /opt/microchip/mplabc32/v2.02/bin/../lib/gcc/pic32mx/4.5.1/../../../../pic32mx/lib/libc.a(doprnt_cdfFnopsuxX.eo)

.data%z168      0x00000000        0x0
 .data          0x00000000        0x0 /opt/microchip/mplabc32/v2.02/bin/../lib/gcc/pic32mx/4.5.1/../../../../pic32mx/lib/libc.a(doprnt_cdfFnopsuxX.eo)

.mdebug.abi32%z169
                0x00000000        0x0
 .mdebug.abi32  0x00000000        0x0 /opt/microchip/mplabc32/v2.02/bin/../lib/gcc/pic32mx/4.5.1/../../../../pic32mx/lib/libc.a(strspn.o)

.bss%z170       0x00000000        0x0
 .bss           0x00000000        0x0 /opt/microchip/mplabc32/v2.02/bin/../lib/gcc/pic32mx/4.5.1/../../../../pic32mx/lib/libc.a(strspn.o)

.data%z171      0x00000000        0x0
 .data          0x00000000        0x0 /opt/microchip/mplabc32/v2.02/bin/../lib/gcc/pic32mx/4.5.1/../../../../pic32mx/lib/libc.a(strspn.o)

.mdebug.abi32%z172
                0x00000000        0x0
 .mdebug.abi32  0x00000000        0x0 /opt/microchip/mplabc32/v2.02/bin/../lib/gcc/pic32mx/4.5.1/../../../../pic32mx/lib/libc.a(strcspn.o)

.bss%z173       0x00000000        0x0
 .bss           0x00000000        0x0 /opt/microchip/mplabc32/v2.02/bin/../lib/gcc/pic32mx/4.5.1/../../../../pic32mx/lib/libc.a(strcspn.o)

.data%z174      0x00000000        0x0
 .data          0x00000000        0x0 /opt/microchip/mplabc32/v2.02/bin/../lib/gcc/pic32mx/4.5.1/../../../../pic32mx/lib/libc.a(strcspn.o)

.mdebug.abi32%z175
                0x00000000        0x0
 .mdebug.abi32  0x00000000        0x0 /opt/microchip/mplabc32/v2.02/bin/../lib/gcc/pic32mx/4.5.1/../../../../pic32mx/lib/libc.a(errno.o)

.bss%z176       0x00000000        0x0
 .bss           0x00000000        0x0 /opt/microchip/mplabc32/v2.02/bin/../lib/gcc/pic32mx/4.5.1/../../../../pic32mx/lib/libc.a(errno.o)

.data%z177      0x00000000        0x0
 .data          0x00000000        0x0 /opt/microchip/mplabc32/v2.02/bin/../lib/gcc/pic32mx/4.5.1/../../../../pic32mx/lib/libc.a(errno.o)

.mdebug.abi32%z178
                0x00000000        0x0
 .mdebug.abi32  0x00000000        0x0 /opt/microchip/mplabc32/v2.02/bin/../lib/gcc/pic32mx/4.5.1/../../../../pic32mx/lib/libc.a(_fputc_simple.o)

.bss%z179       0x00000000        0x0
 .bss           0x00000000        0x0 /opt/microchip/mplabc32/v2.02/bin/../lib/gcc/pic32mx/4.5.1/../../../../pic32mx/lib/libc.a(_fputc_simple.o)

.data%z180      0x00000000        0x0
 .data          0x00000000        0x0 /opt/microchip/mplabc32/v2.02/bin/../lib/gcc/pic32mx/4.5.1/../../../../pic32mx/lib/libc.a(_fputc_simple.o)

.mdebug.abi32%z181
                0x00000000        0x0
 .mdebug.abi32  0x00000000        0x0 /opt/microchip/mplabc32/v2.02/bin/../lib/gcc/pic32mx/4.5.1/../../../../pic32mx/lib/libc.a(_iob.o)

.bss%z182       0x00000000        0x0
 .bss           0x00000000        0x0 /opt/microchip/mplabc32/v2.02/bin/../lib/gcc/pic32mx/4.5.1/../../../../pic32mx/lib/libc.a(default-nmi-handler.o)

.data%z183      0x00000000        0x0
 .data          0x00000000        0x0 /opt/microchip/mplabc32/v2.02/bin/../lib/gcc/pic32mx/4.5.1/../../../../pic32mx/lib/libc.a(default-nmi-handler.o)

.mdebug.abi32%z184
                0x00000000        0x0
 .mdebug.abi32  0x00000000        0x0 /opt/microchip/mplabc32/v2.02/bin/../lib/gcc/pic32mx/4.5.1/../../../../pic32mx/lib/libc.a(default-on-bootstrap.o)

.bss%z185       0x00000000        0x0
 .bss           0x00000000        0x0 /opt/microchip/mplabc32/v2.02/bin/../lib/gcc/pic32mx/4.5.1/../../../../pic32mx/lib/libc.a(default-on-bootstrap.o)

.data%z186      0x00000000        0x0
 .data          0x00000000        0x0 /opt/microchip/mplabc32/v2.02/bin/../lib/gcc/pic32mx/4.5.1/../../../../pic32mx/lib/libc.a(default-on-bootstrap.o)

.mdebug.abi32%z187
                0x00000000        0x0
 .mdebug.abi32  0x00000000        0x0 /opt/microchip/mplabc32/v2.02/bin/../lib/gcc/pic32mx/4.5.1/../../../../pic32mx/lib/libc.a(default-on-reset.o)

.bss%z188       0x00000000        0x0
 .bss           0x00000000        0x0 /opt/microchip/mplabc32/v2.02/bin/../lib/gcc/pic32mx/4.5.1/../../../../pic32mx/lib/libc.a(default-on-reset.o)

.data%z189      0x00000000        0x0
 .data          0x00000000        0x0 /opt/microchip/mplabc32/v2.02/bin/../lib/gcc/pic32mx/4.5.1/../../../../pic32mx/lib/libc.a(default-on-reset.o)

.mdebug.abi32%z190
                0x00000000        0x0
 .mdebug.abi32  0x00000000        0x0 /opt/microchip/mplabc32/v2.02/bin/../lib/gcc/pic32mx/4.5.1/../../../../pic32mx/lib/libc.a(default-bootstrap-exception-handler.o)

.bss%z191       0x00000000        0x0
 .bss           0x00000000        0x0 /opt/microchip/mplabc32/v2.02/bin/../lib/gcc/pic32mx/4.5.1/../../../../pic32mx/lib/libc.a(default-bootstrap-exception-handler.o)

.data%z192      0x00000000        0x0
 .data          0x00000000        0x0 /opt/microchip/mplabc32/v2.02/bin/../lib/gcc/pic32mx/4.5.1/../../../../pic32mx/lib/libc.a(default-bootstrap-exception-handler.o)

.mdebug.abi32%z193
                0x00000000        0x0
 .mdebug.abi32  0x00000000        0x0 /opt/microchip/mplabc32/v2.02/bin/../lib/gcc/pic32mx/4.5.1/../../../../pic32mx/lib/libc.a(sbrk.o)

.data%z194      0x00000000        0x0
 .data          0x00000000        0x0 /opt/microchip/mplabc32/v2.02/bin/../lib/gcc/pic32mx/4.5.1/../../../../pic32mx/lib/libc.a(sbrk.o)

.mdebug.abi32%z195
                0x00000000        0x0
 .mdebug.abi32  0x00000000        0x0 /opt/microchip/mplabc32/v2.02/bin/../lib/gcc/pic32mx/4.5.1/../../../../pic32mx/lib/libc.a(sprintf_cdfFnopsuxX.eo)

.bss%z196       0x00000000        0x0
 .bss           0x00000000        0x0 /opt/microchip/mplabc32/v2.02/bin/../lib/gcc/pic32mx/4.5.1/../../../../pic32mx/lib/libc.a(sprintf_cdfFnopsuxX.eo)

.data%z197      0x00000000        0x0
 .data          0x00000000        0x0 /opt/microchip/mplabc32/v2.02/bin/../lib/gcc/pic32mx/4.5.1/../../../../pic32mx/lib/libc.a(sprintf_cdfFnopsuxX.eo)

.mdebug.abi32%z198
                0x00000000        0x0
 .mdebug.abi32  0x00000000        0x0 /opt/microchip/mplabc32/v2.02/bin/../lib/gcc/pic32mx/4.5.1/../../../../pic32mx/lib/libc.a(printf_cdnopsuxX.eo)

.bss%z199       0x00000000        0x0
 .bss           0x00000000        0x0 /opt/microchip/mplabc32/v2.02/bin/../lib/gcc/pic32mx/4.5.1/../../../../pic32mx/lib/libc.a(printf_cdnopsuxX.eo)

.data%z200      0x00000000        0x0
 .data          0x00000000        0x0 /opt/microchip/mplabc32/v2.02/bin/../lib/gcc/pic32mx/4.5.1/../../../../pic32mx/lib/libc.a(printf_cdnopsuxX.eo)

.mdebug.abi32%z201
                0x00000000        0x0
 .mdebug.abi32  0x00000000        0x0 /opt/microchip/mplabc32/v2.02/bin/../lib/gcc/pic32mx/4.5.1/../../../../pic32mx/lib/libc.a(strtok.o)

.data%z202      0x00000000        0x0
 .data          0x00000000        0x0 /opt/microchip/mplabc32/v2.02/bin/../lib/gcc/pic32mx/4.5.1/../../../../pic32mx/lib/libc.a(strtok.o)

.mdebug.abi32%z203
                0x00000000        0x0
 .mdebug.abi32  0x00000000        0x0 /opt/microchip/mplabc32/v2.02/bin/../lib/gcc/pic32mx/4.5.1/../../../../pic32mx/lib/libc.a(rand.o)

.data%z204      0x00000000        0x0
 .data          0x00000000        0x0 /opt/microchip/mplabc32/v2.02/bin/../lib/gcc/pic32mx/4.5.1/../../../../pic32mx/lib/libc.a(rand.o)

.mdebug.abi32%z205
                0x00000000        0x0
 .mdebug.abi32  0x00000000        0x0 /opt/microchip/mplabc32/v2.02/bin/../lib/gcc/pic32mx/4.5.1/../../../../pic32mx/lib/libc.a(puts.o)

.bss%z206       0x00000000        0x0
 .bss           0x00000000        0x0 /opt/microchip/mplabc32/v2.02/bin/../lib/gcc/pic32mx/4.5.1/../../../../pic32mx/lib/libc.a(puts.o)

.data%z207      0x00000000        0x0
 .data          0x00000000        0x0 /opt/microchip/mplabc32/v2.02/bin/../lib/gcc/pic32mx/4.5.1/../../../../pic32mx/lib/libc.a(puts.o)

.mdebug.abi32%z208
                0x00000000        0x0
 .mdebug.abi32  0x00000000        0x0 /opt/microchip/mplabc32/v2.02/bin/../lib/gcc/pic32mx/4.5.1/../../../../pic32mx/lib/libc.a(malloc.o)

.data%z209      0x00000000        0x0
 .data          0x00000000        0x0 /opt/microchip/mplabc32/v2.02/bin/../lib/gcc/pic32mx/4.5.1/../../../../pic32mx/lib/libc.a(malloc.o)

.mdebug.abi32%z210
                0x00000000        0x0
 .mdebug.abi32  0x00000000        0x0 /opt/microchip/mplabc32/v2.02/bin/../lib/gcc/pic32mx/4.5.1/../../../../pic32mx/lib/libc.a(ctype.o)

.bss%z211       0x00000000        0x0
 .bss           0x00000000        0x0 /opt/microchip/mplabc32/v2.02/bin/../lib/gcc/pic32mx/4.5.1/../../../../pic32mx/lib/libc.a(ctype.o)

.data%z212      0x00000000        0x0
 .data          0x00000000        0x0 /opt/microchip/mplabc32/v2.02/bin/../lib/gcc/pic32mx/4.5.1/../../../../pic32mx/lib/libc.a(ctype.o)

.mdebug.abi32%z213
                0x00000000        0x0
 .mdebug.abi32  0x00000000        0x0 /opt/microchip/mplabc32/v2.02/bin/../lib/gcc/pic32mx/4.5.1/../../../../pic32mx/lib/libc.a(c32_uart.o)

.bss%z214       0x00000000        0x0
 .bss           0x00000000        0x0 /opt/microchip/mplabc32/v2.02/bin/../lib/gcc/pic32mx/4.5.1/../../../../pic32mx/lib/libc.a(c32_uart.o)

.data%z215      0x00000000        0x0
 .data          0x00000000        0x0 /opt/microchip/mplabc32/v2.02/bin/../lib/gcc/pic32mx/4.5.1/../../../../pic32mx/lib/libc.a(c32_uart.o)

.mdebug.abi32%z216
                0x00000000        0x0
 .mdebug.abi32  0x00000000        0x0 /opt/microchip/mplabc32/v2.02/bin/../lib/gcc/pic32mx/4.5.1/../../../../pic32mx/lib/libc.a(atoi.o)

.bss%z217       0x00000000        0x0
 .bss           0x00000000        0x0 /opt/microchip/mplabc32/v2.02/bin/../lib/gcc/pic32mx/4.5.1/../../../../pic32mx/lib/libc.a(atoi.o)

.data%z218      0x00000000        0x0
 .data          0x00000000        0x0 /opt/microchip/mplabc32/v2.02/bin/../lib/gcc/pic32mx/4.5.1/../../../../pic32mx/lib/libc.a(atoi.o)

.bss%z219       0x00000000        0x0
 .bss           0x00000000        0x0 /opt/microchip/mplabc32/v2.02/bin/../lib/gcc/pic32mx/4.5.1/../../../../pic32mx/lib/libc.a(general-exception.o)

.data%z220      0x00000000        0x0
 .data          0x00000000        0x0 /opt/microchip/mplabc32/v2.02/bin/../lib/gcc/pic32mx/4.5.1/../../../../pic32mx/lib/libc.a(general-exception.o)

.bss%z221       0x00000000        0x0
 .bss           0x00000000        0x0 /opt/microchip/mplabc32/v2.02/bin/../lib/gcc/pic32mx/4.5.1/../../../../pic32mx/lib/libc.a(strlen.o)

.data%z222      0x00000000        0x0
 .data          0x00000000        0x0 /opt/microchip/mplabc32/v2.02/bin/../lib/gcc/pic32mx/4.5.1/../../../../pic32mx/lib/libc.a(strlen.o)

.bss%z223       0x00000000        0x0
 .bss           0x00000000        0x0 /opt/microchip/mplabc32/v2.02/bin/../lib/gcc/pic32mx/4.5.1/../../../../pic32mx/lib/libc.a(strcpy.o)

.data%z224      0x00000000        0x0
 .data          0x00000000        0x0 /opt/microchip/mplabc32/v2.02/bin/../lib/gcc/pic32mx/4.5.1/../../../../pic32mx/lib/libc.a(strcpy.o)

.bss%z225       0x00000000        0x0
 .bss           0x00000000        0x0 /opt/microchip/mplabc32/v2.02/bin/../lib/gcc/pic32mx/4.5.1/../../../../pic32mx/lib/libc.a(strcmp.o)

.data%z226      0x00000000        0x0
 .data          0x00000000        0x0 /opt/microchip/mplabc32/v2.02/bin/../lib/gcc/pic32mx/4.5.1/../../../../pic32mx/lib/libc.a(strcmp.o)

.bss%z227       0x00000000        0x0
 .bss           0x00000000        0x0 /opt/microchip/mplabc32/v2.02/bin/../lib/gcc/pic32mx/4.5.1/../../../../pic32mx/lib/libc.a(memset.o)

.data%z228      0x00000000        0x0
 .data          0x00000000        0x0 /opt/microchip/mplabc32/v2.02/bin/../lib/gcc/pic32mx/4.5.1/../../../../pic32mx/lib/libc.a(memset.o)

.bss%z229       0x00000000        0x0
 .bss           0x00000000        0x0 /opt/microchip/mplabc32/v2.02/bin/../lib/gcc/pic32mx/4.5.1/../../../../pic32mx/lib/libc.a(memcpy.o)

.data%z230      0x00000000        0x0
 .data          0x00000000        0x0 /opt/microchip/mplabc32/v2.02/bin/../lib/gcc/pic32mx/4.5.1/../../../../pic32mx/lib/libc.a(memcpy.o)

.bss%z231       0x00000000        0x0
 .bss           0x00000000        0x0 /opt/microchip/mplabc32/v2.02/bin/../lib/gcc/pic32mx/4.5.1/../../../../pic32mx/lib/libc.a(memcmp.o)

.data%z232      0x00000000        0x0
 .data          0x00000000        0x0 /opt/microchip/mplabc32/v2.02/bin/../lib/gcc/pic32mx/4.5.1/../../../../pic32mx/lib/libc.a(memcmp.o)

.mdebug.abi32%z233
                0x00000000        0x0
 .mdebug.abi32  0x00000000        0x0 /opt/microchip/mplabc32/v2.02/bin/../lib/gcc/pic32mx/4.5.1/../../../../pic32mx/lib/libdebug.a(db_utils.o)

.bss%z234       0x00000000        0x0
 .bss           0x00000000        0x0 /opt/microchip/mplabc32/v2.02/bin/../lib/gcc/pic32mx/4.5.1/../../../../pic32mx/lib/libdebug.a(db_utils.o)

.data%z235      0x00000000        0x0
 .data          0x00000000        0x0 /opt/microchip/mplabc32/v2.02/bin/../lib/gcc/pic32mx/4.5.1/../../../../pic32mx/lib/libdebug.a(db_utils.o)

.mdebug.abi32%z236
                0x00000000        0x0
 .mdebug.abi32  0x00000000        0x0 /opt/microchip/mplabc32/v2.02/bin/../lib/gcc/pic32mx/4.5.1/libgcc.a(floatunsisf.o)

.bss%z237       0x00000000        0x0
 .bss           0x00000000        0x0 /opt/microchip/mplabc32/v2.02/bin/../lib/gcc/pic32mx/4.5.1/libgcc.a(floatunsisf.o)

.data%z238      0x00000000        0x0
 .data          0x00000000        0x0 /opt/microchip/mplabc32/v2.02/bin/../lib/gcc/pic32mx/4.5.1/libgcc.a(floatunsisf.o)

.mdebug.abi32%z239
                0x00000000        0x0
 .mdebug.abi32  0x00000000        0x0 /opt/microchip/mplabc32/v2.02/bin/../lib/gcc/pic32mx/4.5.1/libgcc.a(_udivdi3.o)

.bss%z240       0x00000000        0x0
 .bss           0x00000000        0x0 /opt/microchip/mplabc32/v2.02/bin/../lib/gcc/pic32mx/4.5.1/libgcc.a(_udivdi3.o)

.data%z241      0x00000000        0x0
 .data          0x00000000        0x0 /opt/microchip/mplabc32/v2.02/bin/../lib/gcc/pic32mx/4.5.1/libgcc.a(_udivdi3.o)

.mdebug.abi32%z242
                0x00000000        0x0
 .mdebug.abi32  0x00000000        0x0 build/Debug/debug/_ext/1472/PingDemo.o

.bss%z243       0x00000000        0x0
 .bss           0x00000000        0x0 build/Debug/debug/_ext/1472/PingDemo.o

.data%z244      0x00000000        0x0
 .data          0x00000000        0x0 build/Debug/debug/_ext/1472/PingDemo.o

.mdebug.abi32%z245
                0x00000000        0x0
 .mdebug.abi32  0x00000000        0x0 build/Debug/debug/_ext/1472/BerkeleyTCPServerDemo.o

.data%z246      0x00000000        0x0
 .data          0x00000000        0x0 build/Debug/debug/_ext/1472/BerkeleyTCPServerDemo.o

.mdebug.abi32%z247
                0x00000000        0x0
 .mdebug.abi32  0x00000000        0x0 build/Debug/debug/_ext/1472/HodoCrate.o

.bss%z248       0x00000000        0x0
 .bss           0x00000000        0x0 build/Debug/debug/_ext/1472/HodoCrate.o

.data%z249      0x00000000        0x0
 .data          0x00000000        0x0 build/Debug/debug/_ext/1472/HodoCrate.o

.mdebug.abi32%z250
                0x00000000        0x0
 .mdebug.abi32  0x00000000        0x0 build/Debug/debug/_ext/1472/Settings.o

.bss%z251       0x00000000        0x0
 .bss           0x00000000        0x0 build/Debug/debug/_ext/1472/Settings.o

.data%z252      0x00000000        0x0
 .data          0x00000000        0x0 build/Debug/debug/_ext/1472/Settings.o

.mdebug.abi32%z253
                0x00000000        0x0
 .mdebug.abi32  0x00000000        0x0 build/Debug/debug/_ext/1472/MyTFTP.o

.bss%z254       0x00000000        0x0
 .bss           0x00000000        0x0 build/Debug/debug/_ext/1472/MyTFTP.o

.data%z255      0x00000000        0x0
 .data          0x00000000        0x0 build/Debug/debug/_ext/1472/MyTFTP.o

.mdebug.abi32%z256
                0x00000000        0x0
 .mdebug.abi32  0x00000000        0x0 build/Debug/debug/_ext/1472/main.o

.data%z257      0x00000000        0x0
 .data          0x00000000        0x0 build/Debug/debug/_ext/1472/main.o

.mdebug.abi32%z258
                0x00000000        0x0
 .mdebug.abi32  0x00000000        0x0 build/Debug/debug/_ext/1472/i2c_support.o

.bss%z259       0x00000000        0x0
 .bss           0x00000000        0x0 build/Debug/debug/_ext/1472/i2c_support.o

.data%z260      0x00000000        0x0
 .data          0x00000000        0x0 build/Debug/debug/_ext/1472/i2c_support.o

.mdebug.abi32%z261
                0x00000000        0x0
 .mdebug.abi32  0x00000000        0x0 build/Debug/debug/_ext/867694782/ARCFOUR.o

.bss%z262       0x00000000        0x0
 .bss           0x00000000        0x0 build/Debug/debug/_ext/867694782/ARCFOUR.o

.data%z263      0x00000000        0x0
 .data          0x00000000        0x0 build/Debug/debug/_ext/867694782/ARCFOUR.o

.mdebug.abi32%z264
                0x00000000        0x0
 .mdebug.abi32  0x00000000        0x0 build/Debug/debug/_ext/867694782/UDPPerformanceTest.o

.bss%z265       0x00000000        0x0
 .bss           0x00000000        0x0 build/Debug/debug/_ext/867694782/UDPPerformanceTest.o

.data%z266      0x00000000        0x0
 .data          0x00000000        0x0 build/Debug/debug/_ext/867694782/UDPPerformanceTest.o

.mdebug.abi32%z267
                0x00000000        0x0
 .mdebug.abi32  0x00000000        0x0 build/Debug/debug/_ext/867694782/DynDNS.o

.bss%z268       0x00000000        0x0
 .bss           0x00000000        0x0 build/Debug/debug/_ext/867694782/DynDNS.o

.data%z269      0x00000000        0x0
 .data          0x00000000        0x0 build/Debug/debug/_ext/867694782/DynDNS.o

.mdebug.abi32%z270
                0x00000000        0x0
 .mdebug.abi32  0x00000000        0x0 build/Debug/debug/_ext/867694782/MPFS2.o

.bss%z271       0x00000000        0x0
 .bss           0x00000000        0x0 build/Debug/debug/_ext/867694782/MPFS2.o

.data%z272      0x00000000        0x0
 .data          0x00000000        0x0 build/Debug/debug/_ext/867694782/MPFS2.o

.mdebug.abi32%z273
                0x00000000        0x0
 .mdebug.abi32  0x00000000        0x0 build/Debug/debug/_ext/867694782/MPFS.o

.bss%z274       0x00000000        0x0
 .bss           0x00000000        0x0 build/Debug/debug/_ext/867694782/MPFS.o

.data%z275      0x00000000        0x0
 .data          0x00000000        0x0 build/Debug/debug/_ext/867694782/MPFS.o

.mdebug.abi32%z276
                0x00000000        0x0
 .mdebug.abi32  0x00000000        0x0 build/Debug/debug/_ext/867694782/Random.o

.bss%z277       0x00000000        0x0
 .bss           0x00000000        0x0 build/Debug/debug/_ext/867694782/Random.o

.data%z278      0x00000000        0x0
 .data          0x00000000        0x0 build/Debug/debug/_ext/867694782/Random.o

.mdebug.abi32%z279
                0x00000000        0x0
 .mdebug.abi32  0x00000000        0x0 build/Debug/debug/_ext/867694782/ETHPIC32ExtPhy.o

.bss%z280       0x00000000        0x0
 .bss           0x00000000        0x0 build/Debug/debug/_ext/867694782/ETHPIC32ExtPhy.o

.data%z281      0x00000000        0x0
 .data          0x00000000        0x0 build/Debug/debug/_ext/867694782/ETHPIC32ExtPhy.o

.mdebug.abi32%z282
                0x00000000        0x0
 .mdebug.abi32  0x00000000        0x0 build/Debug/debug/_ext/867694782/Telnet.o

.bss%z283       0x00000000        0x0
 .bss           0x00000000        0x0 build/Debug/debug/_ext/867694782/Telnet.o

.data%z284      0x00000000        0x0
 .data          0x00000000        0x0 build/Debug/debug/_ext/867694782/Telnet.o

.mdebug.abi32%z285
                0x00000000        0x0
 .mdebug.abi32  0x00000000        0x0 build/Debug/debug/_ext/867694782/Tick.o

.bss%z286       0x00000000        0x0
 .bss           0x00000000        0x0 build/Debug/debug/_ext/867694782/Tick.o

.data%z287      0x00000000        0x0
 .data          0x00000000        0x0 build/Debug/debug/_ext/867694782/Tick.o

.mdebug.abi32%z288
                0x00000000        0x0
 .mdebug.abi32  0x00000000        0x0 build/Debug/debug/_ext/867694782/SMTP.o

.bss%z289       0x00000000        0x0
 .bss           0x00000000        0x0 build/Debug/debug/_ext/867694782/SMTP.o

.data%z290      0x00000000        0x0
 .data          0x00000000        0x0 build/Debug/debug/_ext/867694782/SMTP.o

.mdebug.abi32%z291
                0x00000000        0x0
 .mdebug.abi32  0x00000000        0x0 build/Debug/debug/_ext/867694782/ETHPIC32ExtPhyDP83848.o

.bss%z292       0x00000000        0x0
 .bss           0x00000000        0x0 build/Debug/debug/_ext/867694782/ETHPIC32ExtPhyDP83848.o

.data%z293      0x00000000        0x0
 .data          0x00000000        0x0 build/Debug/debug/_ext/867694782/ETHPIC32ExtPhyDP83848.o

.mdebug.abi32%z294
                0x00000000        0x0
 .mdebug.abi32  0x00000000        0x0 build/Debug/debug/_ext/867694782/TCP.o

.data%z295      0x00000000        0x0
 .data          0x00000000        0x0 build/Debug/debug/_ext/867694782/TCP.o

.mdebug.abi32%z296
                0x00000000        0x0
 .mdebug.abi32  0x00000000        0x0 build/Debug/debug/_ext/867694782/IP.o

.bss%z297       0x00000000        0x0
 .bss           0x00000000        0x0 build/Debug/debug/_ext/867694782/IP.o

.data%z298      0x00000000        0x0
 .data          0x00000000        0x0 build/Debug/debug/_ext/867694782/IP.o

.mdebug.abi32%z299
                0x00000000        0x0
 .mdebug.abi32  0x00000000        0x0 build/Debug/debug/_ext/867694782/ZeroconfLinkLocal.o

.bss%z300       0x00000000        0x0
 .bss           0x00000000        0x0 build/Debug/debug/_ext/867694782/ZeroconfLinkLocal.o

.data%z301      0x00000000        0x0
 .data          0x00000000        0x0 build/Debug/debug/_ext/867694782/ZeroconfLinkLocal.o

.mdebug.abi32%z302
                0x00000000        0x0
 .mdebug.abi32  0x00000000        0x0 build/Debug/debug/_ext/867694782/Helpers.o

.bss%z303       0x00000000        0x0
 .bss           0x00000000        0x0 build/Debug/debug/_ext/867694782/Helpers.o

.data%z304      0x00000000        0x0
 .data          0x00000000        0x0 build/Debug/debug/_ext/867694782/Helpers.o

.mdebug.abi32%z305
                0x00000000        0x0
 .mdebug.abi32  0x00000000        0x0 build/Debug/debug/_ext/867694782/ETH97J60.o

.bss%z306       0x00000000        0x0
 .bss           0x00000000        0x0 build/Debug/debug/_ext/867694782/ETH97J60.o

.data%z307      0x00000000        0x0
 .data          0x00000000        0x0 build/Debug/debug/_ext/867694782/ETH97J60.o

.mdebug.abi32%z308
                0x00000000        0x0
 .mdebug.abi32  0x00000000        0x0 build/Debug/debug/_ext/867694782/ETHPIC32IntMac.o

.data%z309      0x00000000        0x0
 .data          0x00000000        0x0 build/Debug/debug/_ext/867694782/ETHPIC32IntMac.o

.mdebug.abi32%z310
                0x00000000        0x0
 .mdebug.abi32  0x00000000        0x0 build/Debug/debug/_ext/867694782/ICMP.o

.data%z311      0x00000000        0x0
 .data          0x00000000        0x0 build/Debug/debug/_ext/867694782/ICMP.o

.mdebug.abi32%z312
                0x00000000        0x0
 .mdebug.abi32  0x00000000        0x0 build/Debug/debug/_ext/867694782/DNS.o

.bss%z313       0x00000000        0x0
 .bss           0x00000000        0x0 build/Debug/debug/_ext/867694782/DNS.o

.data%z314      0x00000000        0x0
 .data          0x00000000        0x0 build/Debug/debug/_ext/867694782/DNS.o

.mdebug.abi32%z315
                0x00000000        0x0
 .mdebug.abi32  0x00000000        0x0 build/Debug/debug/_ext/867694782/UDP.o

.bss%z316       0x00000000        0x0
 .bss           0x00000000        0x0 build/Debug/debug/_ext/867694782/UDP.o

.data%z317      0x00000000        0x0
 .data          0x00000000        0x0 build/Debug/debug/_ext/867694782/UDP.o

.mdebug.abi32%z318
                0x00000000        0x0
 .mdebug.abi32  0x00000000        0x0 build/Debug/debug/_ext/867694782/BigInt.o

.bss%z319       0x00000000        0x0
 .bss           0x00000000        0x0 build/Debug/debug/_ext/867694782/BigInt.o

.data%z320      0x00000000        0x0
 .data          0x00000000        0x0 build/Debug/debug/_ext/867694782/BigInt.o

.mdebug.abi32%z321
                0x00000000        0x0
 .mdebug.abi32  0x00000000        0x0 build/Debug/debug/_ext/867694782/DNSs.o

.bss%z322       0x00000000        0x0
 .bss           0x00000000        0x0 build/Debug/debug/_ext/867694782/DNSs.o

.data%z323      0x00000000        0x0
 .data          0x00000000        0x0 build/Debug/debug/_ext/867694782/DNSs.o

.mdebug.abi32%z324
                0x00000000        0x0
 .mdebug.abi32  0x00000000        0x0 build/Debug/debug/_ext/867694782/SPIFlash.o

.bss%z325       0x00000000        0x0
 .bss           0x00000000        0x0 build/Debug/debug/_ext/867694782/SPIFlash.o

.data%z326      0x00000000        0x0
 .data          0x00000000        0x0 build/Debug/debug/_ext/867694782/SPIFlash.o

.mdebug.abi32%z327
                0x00000000        0x0
 .mdebug.abi32  0x00000000        0x0 build/Debug/debug/_ext/867694782/Delay.o

.bss%z328       0x00000000        0x0
 .bss           0x00000000        0x0 build/Debug/debug/_ext/867694782/Delay.o

.data%z329      0x00000000        0x0
 .data          0x00000000        0x0 build/Debug/debug/_ext/867694782/Delay.o

.mdebug.abi32%z330
                0x00000000        0x0
 .mdebug.abi32  0x00000000        0x0 build/Debug/debug/_ext/867694782/SSL.o

.bss%z331       0x00000000        0x0
 .bss           0x00000000        0x0 build/Debug/debug/_ext/867694782/SSL.o

.data%z332      0x00000000        0x0
 .data          0x00000000        0x0 build/Debug/debug/_ext/867694782/SSL.o

.mdebug.abi32%z333
                0x00000000        0x0
 .mdebug.abi32  0x00000000        0x0 build/Debug/debug/_ext/867694782/SPIEEPROM.o

.bss%z334       0x00000000        0x0
 .bss           0x00000000        0x0 build/Debug/debug/_ext/867694782/SPIEEPROM.o

.data%z335      0x00000000        0x0
 .data          0x00000000        0x0 build/Debug/debug/_ext/867694782/SPIEEPROM.o

.mdebug.abi32%z336
                0x00000000        0x0
 .mdebug.abi32  0x00000000        0x0 build/Debug/debug/_ext/867694782/Reboot.o

.bss%z337       0x00000000        0x0
 .bss           0x00000000        0x0 build/Debug/debug/_ext/867694782/Reboot.o

.data%z338      0x00000000        0x0
 .data          0x00000000        0x0 build/Debug/debug/_ext/867694782/Reboot.o

.mdebug.abi32%z339
                0x00000000        0x0
 .mdebug.abi32  0x00000000        0x0 build/Debug/debug/_ext/867694782/DHCP.o

.data%z340      0x00000000        0x0
 .data          0x00000000        0x0 build/Debug/debug/_ext/867694782/DHCP.o

.mdebug.abi32%z341
                0x00000000        0x0
 .mdebug.abi32  0x00000000        0x0 build/Debug/debug/_ext/867694782/DHCPs.o

.bss%z342       0x00000000        0x0
 .bss           0x00000000        0x0 build/Debug/debug/_ext/867694782/DHCPs.o

.data%z343      0x00000000        0x0
 .data          0x00000000        0x0 build/Debug/debug/_ext/867694782/DHCPs.o

.mdebug.abi32%z344
                0x00000000        0x0
 .mdebug.abi32  0x00000000        0x0 build/Debug/debug/_ext/867694782/AutoIP.o

.bss%z345       0x00000000        0x0
 .bss           0x00000000        0x0 build/Debug/debug/_ext/867694782/AutoIP.o

.data%z346      0x00000000        0x0
 .data          0x00000000        0x0 build/Debug/debug/_ext/867694782/AutoIP.o

.mdebug.abi32%z347
                0x00000000        0x0
 .mdebug.abi32  0x00000000        0x0 build/Debug/debug/_ext/867694782/UART2TCPBridge.o

.bss%z348       0x00000000        0x0
 .bss           0x00000000        0x0 build/Debug/debug/_ext/867694782/UART2TCPBridge.o

.data%z349      0x00000000        0x0
 .data          0x00000000        0x0 build/Debug/debug/_ext/867694782/UART2TCPBridge.o

.mdebug.abi32%z350
                0x00000000        0x0
 .mdebug.abi32  0x00000000        0x0 build/Debug/debug/_ext/867694782/TCPPerformanceTest.o

.bss%z351       0x00000000        0x0
 .bss           0x00000000        0x0 build/Debug/debug/_ext/867694782/TCPPerformanceTest.o

.data%z352      0x00000000        0x0
 .data          0x00000000        0x0 build/Debug/debug/_ext/867694782/TCPPerformanceTest.o

.mdebug.abi32%z353
                0x00000000        0x0
 .mdebug.abi32  0x00000000        0x0 build/Debug/debug/_ext/867694782/BerkeleyAPI.o

.data%z354      0x00000000        0x0
 .data          0x00000000        0x0 build/Debug/debug/_ext/867694782/BerkeleyAPI.o

.mdebug.abi32%z355
                0x00000000        0x0
 .mdebug.abi32  0x00000000        0x0 build/Debug/debug/_ext/867694782/ENCX24J600.o

.bss%z356       0x00000000        0x0
 .bss           0x00000000        0x0 build/Debug/debug/_ext/867694782/ENCX24J600.o

.data%z357      0x00000000        0x0
 .data          0x00000000        0x0 build/Debug/debug/_ext/867694782/ENCX24J600.o

.mdebug.abi32%z358
                0x00000000        0x0
 .mdebug.abi32  0x00000000        0x0 build/Debug/debug/_ext/867694782/NBNS.o

.bss%z359       0x00000000        0x0
 .bss           0x00000000        0x0 build/Debug/debug/_ext/867694782/NBNS.o

.data%z360      0x00000000        0x0
 .data          0x00000000        0x0 build/Debug/debug/_ext/867694782/NBNS.o

.mdebug.abi32%z361
                0x00000000        0x0
 .mdebug.abi32  0x00000000        0x0 build/Debug/debug/_ext/867694782/ZeroconfMulticastDNS.o

.bss%z362       0x00000000        0x0
 .bss           0x00000000        0x0 build/Debug/debug/_ext/867694782/ZeroconfMulticastDNS.o

.data%z363      0x00000000        0x0
 .data          0x00000000        0x0 build/Debug/debug/_ext/867694782/ZeroconfMulticastDNS.o

.mdebug.abi32%z364
                0x00000000        0x0
 .mdebug.abi32  0x00000000        0x0 build/Debug/debug/_ext/867694782/HTTP2.o

.bss%z365       0x00000000        0x0
 .bss           0x00000000        0x0 build/Debug/debug/_ext/867694782/HTTP2.o

.data%z366      0x00000000        0x0
 .data          0x00000000        0x0 build/Debug/debug/_ext/867694782/HTTP2.o

.mdebug.abi32%z367
                0x00000000        0x0
 .mdebug.abi32  0x00000000        0x0 build/Debug/debug/_ext/867694782/ZeroconfHelper.o

.bss%z368       0x00000000        0x0
 .bss           0x00000000        0x0 build/Debug/debug/_ext/867694782/ZeroconfHelper.o

.data%z369      0x00000000        0x0
 .data          0x00000000        0x0 build/Debug/debug/_ext/867694782/ZeroconfHelper.o

.mdebug.abi32%z370
                0x00000000        0x0
 .mdebug.abi32  0x00000000        0x0 build/Debug/debug/_ext/867694782/UART.o

.bss%z371       0x00000000        0x0
 .bss           0x00000000        0x0 build/Debug/debug/_ext/867694782/UART.o

.data%z372      0x00000000        0x0
 .data          0x00000000        0x0 build/Debug/debug/_ext/867694782/UART.o

.mdebug.abi32%z373
                0x00000000        0x0
 .mdebug.abi32  0x00000000        0x0 build/Debug/debug/_ext/867694782/RSA.o

.bss%z374       0x00000000        0x0
 .bss           0x00000000        0x0 build/Debug/debug/_ext/867694782/RSA.o

.data%z375      0x00000000        0x0
 .data          0x00000000        0x0 build/Debug/debug/_ext/867694782/RSA.o

.mdebug.abi32%z376
                0x00000000        0x0
 .mdebug.abi32  0x00000000        0x0 build/Debug/debug/_ext/867694782/SNTP.o

.bss%z377       0x00000000        0x0
 .bss           0x00000000        0x0 build/Debug/debug/_ext/867694782/SNTP.o

.data%z378      0x00000000        0x0
 .data          0x00000000        0x0 build/Debug/debug/_ext/867694782/SNTP.o

.mdebug.abi32%z379
                0x00000000        0x0
 .mdebug.abi32  0x00000000        0x0 build/Debug/debug/_ext/867694782/HTTP.o

.bss%z380       0x00000000        0x0
 .bss           0x00000000        0x0 build/Debug/debug/_ext/867694782/HTTP.o

.data%z381      0x00000000        0x0
 .data          0x00000000        0x0 build/Debug/debug/_ext/867694782/HTTP.o

.mdebug.abi32%z382
                0x00000000        0x0
 .mdebug.abi32  0x00000000        0x0 build/Debug/debug/_ext/867694782/ARP.o

.data%z383      0x00000000        0x0
 .data          0x00000000        0x0 build/Debug/debug/_ext/867694782/ARP.o

.mdebug.abi32%z384
                0x00000000        0x0
 .mdebug.abi32  0x00000000        0x0 build/Debug/debug/_ext/867694782/StackTsk.o

.bss%z385       0x00000000        0x0
 .bss           0x00000000        0x0 build/Debug/debug/_ext/867694782/StackTsk.o

.data%z386      0x00000000        0x0
 .data          0x00000000        0x0 build/Debug/debug/_ext/867694782/StackTsk.o

.mdebug.abi32%z387
                0x00000000        0x0
 .mdebug.abi32  0x00000000        0x0 build/Debug/debug/_ext/867694782/LCDBlocking.o

.bss%z388       0x00000000        0x0
 .bss           0x00000000        0x0 build/Debug/debug/_ext/867694782/LCDBlocking.o

.data%z389      0x00000000        0x0
 .data          0x00000000        0x0 build/Debug/debug/_ext/867694782/LCDBlocking.o

.mdebug.abi32%z390
                0x00000000        0x0
 .mdebug.abi32  0x00000000        0x0 build/Debug/debug/_ext/867694782/Hashes.o

.bss%z391       0x00000000        0x0
 .bss           0x00000000        0x0 build/Debug/debug/_ext/867694782/Hashes.o

.data%z392      0x00000000        0x0
 .data          0x00000000        0x0 build/Debug/debug/_ext/867694782/Hashes.o

.mdebug.abi32%z393
                0x00000000        0x0
 .mdebug.abi32  0x00000000        0x0 build/Debug/debug/_ext/867694782/SNMP.o

.bss%z394       0x00000000        0x0
 .bss           0x00000000        0x0 build/Debug/debug/_ext/867694782/SNMP.o

.data%z395      0x00000000        0x0
 .data          0x00000000        0x0 build/Debug/debug/_ext/867694782/SNMP.o

.mdebug.abi32%z396
                0x00000000        0x0
 .mdebug.abi32  0x00000000        0x0 build/Debug/debug/_ext/867694782/SPIRAM.o

.bss%z397       0x00000000        0x0
 .bss           0x00000000        0x0 build/Debug/debug/_ext/867694782/SPIRAM.o

.data%z398      0x00000000        0x0
 .data          0x00000000        0x0 build/Debug/debug/_ext/867694782/SPIRAM.o

.mdebug.abi32%z399
                0x00000000        0x0
 .mdebug.abi32  0x00000000        0x0 build/Debug/debug/_ext/867694782/ENC28J60.o

.bss%z400       0x00000000        0x0
 .bss           0x00000000        0x0 build/Debug/debug/_ext/867694782/ENC28J60.o

.data%z401      0x00000000        0x0
 .data          0x00000000        0x0 build/Debug/debug/_ext/867694782/ENC28J60.o

.mdebug.abi32%z402
                0x00000000        0x0
 .mdebug.abi32  0x00000000        0x0 build/Debug/debug/_ext/867694782/FTP.o

.bss%z403       0x00000000        0x0
 .bss           0x00000000        0x0 build/Debug/debug/_ext/867694782/FTP.o

.data%z404      0x00000000        0x0
 .data          0x00000000        0x0 build/Debug/debug/_ext/867694782/FTP.o

.mdebug.abi32%z405
                0x00000000        0x0
 .mdebug.abi32  0x00000000        0x0 build/Debug/debug/_ext/867694782/CAN2TCPBridge.o

.bss%z406       0x00000000        0x0
 .bss           0x00000000        0x0 build/Debug/debug/_ext/867694782/CAN2TCPBridge.o

.data%z407      0x00000000        0x0
 .data          0x00000000        0x0 build/Debug/debug/_ext/867694782/CAN2TCPBridge.o

.mdebug.abi32%z408
                0x00000000        0x0
 .mdebug.abi32  0x00000000        0x0 build/Debug/debug/_ext/867694782/Announce.o

.bss%z409       0x00000000        0x0
 .bss           0x00000000        0x0 build/Debug/debug/_ext/867694782/Announce.o

.data%z410      0x00000000        0x0
 .data          0x00000000        0x0 build/Debug/debug/_ext/867694782/Announce.o

.mdebug.abi32%z411
                0x00000000        0x0
 .mdebug.abi32  0x00000000        0x0 build/Debug/debug/_ext/867694782/TFTPc.o

.data%z412      0x00000000        0x0
 .data          0x00000000        0x0 build/Debug/debug/_ext/867694782/TFTPc.o

.mdebug.abi32%z413
                0x00000000        0x0
 .mdebug.abi32  0x00000000        0x0 build/Debug/debug/_ext/100901378/WFConsoleMsgs.o

.bss%z414       0x00000000        0x0
 .bss           0x00000000        0x0 build/Debug/debug/_ext/100901378/WFConsoleMsgs.o

.data%z415      0x00000000        0x0
 .data          0x00000000        0x0 build/Debug/debug/_ext/100901378/WFConsoleMsgs.o

.mdebug.abi32%z416
                0x00000000        0x0
 .mdebug.abi32  0x00000000        0x0 build/Debug/debug/_ext/100901378/WFMgmtMsg.o

.bss%z417       0x00000000        0x0
 .bss           0x00000000        0x0 build/Debug/debug/_ext/100901378/WFMgmtMsg.o

.data%z418      0x00000000        0x0
 .data          0x00000000        0x0 build/Debug/debug/_ext/100901378/WFMgmtMsg.o

.mdebug.abi32%z419
                0x00000000        0x0
 .mdebug.abi32  0x00000000        0x0 build/Debug/debug/_ext/100901378/WFDataTxRx.o

.bss%z420       0x00000000        0x0
 .bss           0x00000000        0x0 build/Debug/debug/_ext/100901378/WFDataTxRx.o

.data%z421      0x00000000        0x0
 .data          0x00000000        0x0 build/Debug/debug/_ext/100901378/WFDataTxRx.o

.mdebug.abi32%z422
                0x00000000        0x0
 .mdebug.abi32  0x00000000        0x0 build/Debug/debug/_ext/100901378/WFMac.o

.bss%z423       0x00000000        0x0
 .bss           0x00000000        0x0 build/Debug/debug/_ext/100901378/WFMac.o

.data%z424      0x00000000        0x0
 .data          0x00000000        0x0 build/Debug/debug/_ext/100901378/WFMac.o

.mdebug.abi32%z425
                0x00000000        0x0
 .mdebug.abi32  0x00000000        0x0 build/Debug/debug/_ext/100901378/WFConnectionAlgorithm.o

.bss%z426       0x00000000        0x0
 .bss           0x00000000        0x0 build/Debug/debug/_ext/100901378/WFConnectionAlgorithm.o

.data%z427      0x00000000        0x0
 .data          0x00000000        0x0 build/Debug/debug/_ext/100901378/WFConnectionAlgorithm.o

.mdebug.abi32%z428
                0x00000000        0x0
 .mdebug.abi32  0x00000000        0x0 build/Debug/debug/_ext/100901378/WFConsoleIfconfig.o

.bss%z429       0x00000000        0x0
 .bss           0x00000000        0x0 build/Debug/debug/_ext/100901378/WFConsoleIfconfig.o

.data%z430      0x00000000        0x0
 .data          0x00000000        0x0 build/Debug/debug/_ext/100901378/WFConsoleIfconfig.o

.mdebug.abi32%z431
                0x00000000        0x0
 .mdebug.abi32  0x00000000        0x0 build/Debug/debug/_ext/100901378/WFConsoleIwconfig.o

.bss%z432       0x00000000        0x0
 .bss           0x00000000        0x0 build/Debug/debug/_ext/100901378/WFConsoleIwconfig.o

.data%z433      0x00000000        0x0
 .data          0x00000000        0x0 build/Debug/debug/_ext/100901378/WFConsoleIwconfig.o

.mdebug.abi32%z434
                0x00000000        0x0
 .mdebug.abi32  0x00000000        0x0 build/Debug/debug/_ext/100901378/WFEventHandler.o

.bss%z435       0x00000000        0x0
 .bss           0x00000000        0x0 build/Debug/debug/_ext/100901378/WFEventHandler.o

.data%z436      0x00000000        0x0
 .data          0x00000000        0x0 build/Debug/debug/_ext/100901378/WFEventHandler.o

.mdebug.abi32%z437
                0x00000000        0x0
 .mdebug.abi32  0x00000000        0x0 build/Debug/debug/_ext/100901378/WFConsoleMsgHandler.o

.bss%z438       0x00000000        0x0
 .bss           0x00000000        0x0 build/Debug/debug/_ext/100901378/WFConsoleMsgHandler.o

.data%z439      0x00000000        0x0
 .data          0x00000000        0x0 build/Debug/debug/_ext/100901378/WFConsoleMsgHandler.o

.mdebug.abi32%z440
                0x00000000        0x0
 .mdebug.abi32  0x00000000        0x0 build/Debug/debug/_ext/100901378/WFDriverCom.o

.bss%z441       0x00000000        0x0
 .bss           0x00000000        0x0 build/Debug/debug/_ext/100901378/WFDriverCom.o

.data%z442      0x00000000        0x0
 .data          0x00000000        0x0 build/Debug/debug/_ext/100901378/WFDriverCom.o

.mdebug.abi32%z443
                0x00000000        0x0
 .mdebug.abi32  0x00000000        0x0 build/Debug/debug/_ext/100901378/WFInit.o

.bss%z444       0x00000000        0x0
 .bss           0x00000000        0x0 build/Debug/debug/_ext/100901378/WFInit.o

.data%z445      0x00000000        0x0
 .data          0x00000000        0x0 build/Debug/debug/_ext/100901378/WFInit.o

.mdebug.abi32%z446
                0x00000000        0x0
 .mdebug.abi32  0x00000000        0x0 build/Debug/debug/_ext/100901378/WFTxPower.o

.bss%z447       0x00000000        0x0
 .bss           0x00000000        0x0 build/Debug/debug/_ext/100901378/WFTxPower.o

.data%z448      0x00000000        0x0
 .data          0x00000000        0x0 build/Debug/debug/_ext/100901378/WFTxPower.o

.mdebug.abi32%z449
                0x00000000        0x0
 .mdebug.abi32  0x00000000        0x0 build/Debug/debug/_ext/100901378/WFConsoleIwpriv.o

.bss%z450       0x00000000        0x0
 .bss           0x00000000        0x0 build/Debug/debug/_ext/100901378/WFConsoleIwpriv.o

.data%z451      0x00000000        0x0
 .data          0x00000000        0x0 build/Debug/debug/_ext/100901378/WFConsoleIwpriv.o

.mdebug.abi32%z452
                0x00000000        0x0
 .mdebug.abi32  0x00000000        0x0 build/Debug/debug/_ext/100901378/WFDriverRaw.o

.bss%z453       0x00000000        0x0
 .bss           0x00000000        0x0 build/Debug/debug/_ext/100901378/WFDriverRaw.o

.data%z454      0x00000000        0x0
 .data          0x00000000        0x0 build/Debug/debug/_ext/100901378/WFDriverRaw.o

.mdebug.abi32%z455
                0x00000000        0x0
 .mdebug.abi32  0x00000000        0x0 build/Debug/debug/_ext/100901378/WFConnectionProfile.o

.bss%z456       0x00000000        0x0
 .bss           0x00000000        0x0 build/Debug/debug/_ext/100901378/WFConnectionProfile.o

.data%z457      0x00000000        0x0
 .data          0x00000000        0x0 build/Debug/debug/_ext/100901378/WFConnectionProfile.o

.mdebug.abi32%z458
                0x00000000        0x0
 .mdebug.abi32  0x00000000        0x0 build/Debug/debug/_ext/100901378/WFParamMsg.o

.bss%z459       0x00000000        0x0
 .bss           0x00000000        0x0 build/Debug/debug/_ext/100901378/WFParamMsg.o

.data%z460      0x00000000        0x0
 .data          0x00000000        0x0 build/Debug/debug/_ext/100901378/WFParamMsg.o

.mdebug.abi32%z461
                0x00000000        0x0
 .mdebug.abi32  0x00000000        0x0 build/Debug/debug/_ext/100901378/WFPowerSave.o

.bss%z462       0x00000000        0x0
 .bss           0x00000000        0x0 build/Debug/debug/_ext/100901378/WFPowerSave.o

.data%z463      0x00000000        0x0
 .data          0x00000000        0x0 build/Debug/debug/_ext/100901378/WFPowerSave.o

.mdebug.abi32%z464
                0x00000000        0x0
 .mdebug.abi32  0x00000000        0x0 build/Debug/debug/_ext/100901378/WFConnectionManager.o

.bss%z465       0x00000000        0x0
 .bss           0x00000000        0x0 build/Debug/debug/_ext/100901378/WFConnectionManager.o

.data%z466      0x00000000        0x0
 .data          0x00000000        0x0 build/Debug/debug/_ext/100901378/WFConnectionManager.o

.mdebug.abi32%z467
                0x00000000        0x0
 .mdebug.abi32  0x00000000        0x0 build/Debug/debug/_ext/100901378/WF_Eint.o

.bss%z468       0x00000000        0x0
 .bss           0x00000000        0x0 build/Debug/debug/_ext/100901378/WF_Eint.o

.data%z469      0x00000000        0x0
 .data          0x00000000        0x0 build/Debug/debug/_ext/100901378/WF_Eint.o

.mdebug.abi32%z470
                0x00000000        0x0
 .mdebug.abi32  0x00000000        0x0 build/Debug/debug/_ext/100901378/WFConsole.o

.bss%z471       0x00000000        0x0
 .bss           0x00000000        0x0 build/Debug/debug/_ext/100901378/WFConsole.o

.data%z472      0x00000000        0x0
 .data          0x00000000        0x0 build/Debug/debug/_ext/100901378/WFConsole.o

.mdebug.abi32%z473
                0x00000000        0x0
 .mdebug.abi32  0x00000000        0x0 build/Debug/debug/_ext/100901378/WFEasyConfig.o

.bss%z474       0x00000000        0x0
 .bss           0x00000000        0x0 build/Debug/debug/_ext/100901378/WFEasyConfig.o

.data%z475      0x00000000        0x0
 .data          0x00000000        0x0 build/Debug/debug/_ext/100901378/WFEasyConfig.o

.mdebug.abi32%z476
                0x00000000        0x0
 .mdebug.abi32  0x00000000        0x0 build/Debug/debug/_ext/100901378/WF_Spi.o

.bss%z477       0x00000000        0x0
 .bss           0x00000000        0x0 build/Debug/debug/_ext/100901378/WF_Spi.o

.data%z478      0x00000000        0x0
 .data          0x00000000        0x0 build/Debug/debug/_ext/100901378/WF_Spi.o

.mdebug.abi32%z479
                0x00000000        0x0
 .mdebug.abi32  0x00000000        0x0 build/Debug/debug/_ext/100901378/WFScan.o

.bss%z480       0x00000000        0x0
 .bss           0x00000000        0x0 build/Debug/debug/_ext/100901378/WFScan.o

.data%z481      0x00000000        0x0
 .data          0x00000000        0x0 build/Debug/debug/_ext/100901378/WFScan.o

.bss%z482       0x00000000        0x0
 .bss           0x00000000        0x0 /opt/microchip/mplabc32/v2.02/bin/../lib/gcc/pic32mx/4.5.1/../../../../pic32mx/lib/crt0.o

.data%z483      0x00000000        0x0
 .data          0x00000000        0x0 /opt/microchip/mplabc32/v2.02/bin/../lib/gcc/pic32mx/4.5.1/../../../../pic32mx/lib/crt0.o

.user_nvm_data  0x9d07f000     0x1000
 .user_nvm_data
                0x9d07f000     0x1000 build/Debug/debug/_ext/1472/main.o
                0x9d07f000                user_data

.text           0x9d000008     0xda58
 .text          0x9d000008     0x845c build/Debug/debug/_ext/867694782/TCP.o
                0x9d000134                TCPInit
                0x9d000430                TCPOpen
                0x9d000830                TCPWasReset
                0x9d0008c8                TCPIsConnected
                0x9d000920                TCPDisconnect
                0x9d000b9c                TCPClose
                0x9d000c0c                TCPGetRemoteInfo
                0x9d000c88                TCPFlush
                0x9d000d0c                TCPIsPutReady
                0x9d000ee8                TCPPut
                0x9d001240                TCPPutArray
                0x9d0016ac                TCPPutString
                0x9d00171c                TCPGetTxFIFOFull
                0x9d0017d0                TCPDiscard
                0x9d001878                TCPIsGetReady
                0x9d0019fc                TCPGet
                0x9d001c8c                TCPGetArray
                0x9d002054                TCPGetRxFIFOFree
                0x9d002100                TCPPeekArray
                0x9d00239c                TCPPeek
                0x9d0023fc                TCPFindArrayEx
                0x9d002a14                TCPFindEx
                0x9d002a8c                TCPTick
                0x9d003920                TCPProcess
                0x9d007ba4                TCPAdjustFIFOSize
 .text          0x9d008464     0x2748 build/Debug/debug/_ext/1472/main.o
                0x9d008464                _general_exception_handler
                0x9d008490                main
 .text          0x9d00abac     0x1920 build/Debug/debug/_ext/867694782/BerkeleyAPI.o
                0x9d00abac                BerkeleySocketInit
                0x9d00ac1c                socket
                0x9d00ad48                bind
                0x9d00aec4                listen
                0x9d00b180                accept
                0x9d00b450                connect
                0x9d00b778                send
                0x9d00b7d8                sendto
                0x9d00bb88                recv
                0x9d00bd00                recvfrom
                0x9d00bf60                gethostname
                0x9d00c054                closesocket
 .text          0x9d00c4cc     0x1594 build/Debug/debug/_ext/867694782/DHCP.o
                0x9d00c4cc                DHCPInit
                0x9d00c5c0                DHCPDisable
                0x9d00c630                DHCPEnable
                0x9d00c690                DHCPIsEnabled
                0x9d00c6c8                DHCPIsBound
                0x9d00c704                DHCPStateChanged
                0x9d00c768                DHCPIsServerDetected
                0x9d00c7a4                DHCPTask

.text._vfprintf_cdfFnopsuxX
                0x9d00da60     0x13a0
 .text._vfprintf_cdfFnopsuxX
                0x9d00da60     0x13a0 /opt/microchip/mplabc32/v2.02/bin/../lib/gcc/pic32mx/4.5.1/../../../../pic32mx/lib/libc.a(doprnt_cdfFnopsuxX.eo)
                0x9d00da60                _vfprintf_cdnopsuxX
                0x9d00da60                _vfprintf_s
                0x9d00da60                _vfprintf_0
                0x9d00da60                _vfprintf_cdfFnopsuxX
                0x9d00da60                _vfprintf_cdnopuxX

.text           0x9d00ee00     0x6b6c
 .text          0x9d00ee00     0x1140 build/Debug/debug/_ext/867694782/ETHPIC32ExtPhy.o
                0x9d00ee00                EthPhyInit
                0x9d00f2f0                EthPhyRestartNegotiation
                0x9d00f370                EthPhyNegotiationComplete
                0x9d00f564                EthPhyGetNegotiationResult
                0x9d00f858                EthPhyGetLinkStatus
                0x9d00f908                EthPhyReset
                0x9d00f9f8                EthPhyScanLinkStart
                0x9d00fa34                EthPhyScanLinkRead
                0x9d00faa0                EthPhyScanLinkStop
 .text          0x9d00ff40     0x10b0 build/Debug/debug/_ext/867694782/Helpers.o
                0x9d00ff40                GenerateRandomDWORD
                0x9d010194                StringToIPAddress
                0x9d0103c8                StringToIPAddress_OLD
                0x9d010768                uitoa
                0x9d010894                hexatob
                0x9d010988                btohexa_high
                0x9d0109ec                btohexa_low
                0x9d010a50                stricmppgm2ram
                0x9d010bbc                swaps
                0x9d010c08                swapl
                0x9d010cf0                CalcIPChecksum
                0x9d010dd8                strupr
                0x9d010e74                FormatNetBIOSName
                0x9d010f3c                strnchr
 .text          0x9d010ff0      0xef8 build/Debug/debug/_ext/867694782/ETHPIC32IntMac.o
                0x9d010ff0                MACInit
                0x9d0113f0                MACIsLinked
                0x9d011418                MACGetTxBaseAddr
                0x9d011458                MACGetHttpBaseAddr
                0x9d011480                MACGetSslBaseAddr
                0x9d0114a8                MACSetWritePtr
                0x9d0114e0                MACIsTxReady
                0x9d011698                MACPut
                0x9d0116d4                MACPutArray
                0x9d011734                MACPutHeader
                0x9d011818                MACFlush
                0x9d011888                MACDiscardRx
                0x9d0118e4                MACGetHeader
                0x9d011b0c                MACSetReadPtrInRx
                0x9d011b48                MACSetReadPtr
                0x9d011b80                MACGet
                0x9d011bb4                MACGetArray
                0x9d011c24                MACGetFreeRxSize
                0x9d011c78                MACMemCopyAsync
                0x9d011d1c                MACIsMemCopyDone
                0x9d011d40                CalcIPBufferChecksum
                0x9d011d88                MACCalcRxChecksum
 .text          0x9d011ee8      0xe98 build/Debug/debug/_ext/1472/HodoCrate.o
                0x9d011ee8                InitHodoCrate
                0x9d011f50                LoadDefaultHodoCrate
                0x9d011fc8                SetAmplitude
                0x9d012078                SetAmplitudeAll
                0x9d0120fc                GetAmplitude
                0x9d012174                UpdateOutput
                0x9d01248c                UpdateOutputAll
                0x9d012510                GetAmplitudeDAC
                0x9d012714                ReadMultiplexer
                0x9d0127b4                WriteMultiplexer
                0x9d01287c                GetBoard
                0x9d0128e0                GetIdInBoard
                0x9d01294c                InitTemperature
                0x9d012b0c                InitTemperatureAll
                0x9d012b88                ReadTemperature
                0x9d012d34                turn_system_on_off
 .text          0x9d012d80      0xdfc build/Debug/debug/_ext/867694782/TFTPc.o
                0x9d012d80                TFTPOpen
                0x9d012df4                TFTPIsOpened
                0x9d012ee4                TFTPOpenFile
                0x9d012fc0                TFTPIsFileOpened
                0x9d013010                TFTPIsGetReady
                0x9d013414                TFTPGet
                0x9d0134b4                TFTPCloseFile
                0x9d0135fc                TFTPIsFileClosed
                0x9d01364c                TFTPIsPutReady
                0x9d013970                TFTPPut
 .text          0x9d013b7c      0xcb0 build/Debug/debug/_ext/867694782/UDP.o
                0x9d013b7c                UDPInit
                0x9d013bec                UDPTask
                0x9d013c14                UDPOpen
                0x9d013d60                UDPClose
                0x9d013de8                UDPSetTxBuffer
                0x9d013e48                UDPSetRxBuffer
                0x9d013e98                UDPIsPutReady
                0x9d013f24                UDPPut
                0x9d013fb0                UDPPutArray
                0x9d014058                UDPPutString
                0x9d0140b0                UDPFlush
                0x9d0142a0                UDPIsGetReady
                0x9d014330                UDPGet
                0x9d0143b4                UDPGetArray
                0x9d014474                UDPDiscard
                0x9d0144d4                UDPProcess
 .text          0x9d01482c      0x8ec /opt/microchip/mplabc32/v2.02/bin/../lib/gcc/pic32mx/4.5.1/../../../../pic32mx/lib/libm.a(fp32.o)
                0x9d01482c                __subsf3
                0x9d01482c                fpsub
                0x9d014834                fpadd
                0x9d014834                __addsf3
                0x9d014aa0                fpmul
                0x9d014aa0                __mulsf3
                0x9d014c58                __divsf3
                0x9d014c58                fpdiv
                0x9d014e84                litofp
                0x9d014e84                sitofp
                0x9d014e84                __floatsisf
                0x9d014ee0                ultofp
                0x9d014ee0                uitofp
                0x9d014f2c                fptosi
                0x9d014f2c                fptoli
                0x9d014f2c                __fixsfsi
                0x9d014fa4                __fixunssfsi
                0x9d014fa4                fptoul
                0x9d014fa4                fptoui
                0x9d015018                __gesf2
                0x9d015018                fpcmp
                0x9d015018                __lesf2
                0x9d015018                __ltsf2
                0x9d015018                __gtsf2
                0x9d015018                __eqsf2
                0x9d015018                __nesf2
                0x9d0150ac                fabsf
                0x9d0150ac                fpfabs
                0x9d0150bc                __negsf2
                0x9d0150cc                fpnan
                0x9d0150cc                nanf
 .text          0x9d015118      0x854 build/Debug/debug/_ext/867694782/ARP.o
                0x9d015228                ARPInit
                0x9d015370                storeArpCache
                0x9d0154a4                ARPProcess
                0x9d01565c                ARPResolve
                0x9d015788                ARPIsResolved
                0x9d0158e0                SwapARPPacket

.rodata         0x9d01596c      0x7d4
 .rodata        0x9d01596c      0x7d4 /opt/microchip/mplabc32/v2.02/bin/../lib/gcc/pic32mx/4.5.1/../../../../pic32mx/lib/libmchp_peripheral_32MX795F512L.a(int_tbl_lib.o)
                0x9d01596c                __IntSrcTbl
                0x9d015e88                __IntVectorTbl

.text           0x9d016140     0x2324
 .text          0x9d016140      0x708 build/Debug/debug/_ext/1472/i2c_support.o
                0x9d016140                I2CStartTransfer
                0x9d0161f8                I2CStopTransfer
                0x9d01624c                I2CTransmitOneByte
                0x9d0162f0                I2CTransmitOneByteToAddress
                0x9d01640c                I2CTransmitMoreBytes
                0x9d0164e8                I2CTransmitMoreBytesToAddress
                0x9d016610                I2CReceiveBytesFromAddress
                0x9d0167c0                I2CMainInit
 .text          0x9d016848      0x5ac build/Debug/debug/_ext/867694782/ICMP.o
                0x9d016848                ICMPProcess
                0x9d016a74                ICMPSendPing
                0x9d016acc                ICMPGetReply
                0x9d016d74                ICMPBeginUsage
                0x9d016dc8                ICMPEndUsage
 .text          0x9d016df4      0x534 build/Debug/debug/_ext/1472/Settings.o
                0x9d016df4                ReadSettingsFromFlash
                0x9d016e60                WriteSettingsToFlash
                0x9d016ecc                UserFlashPageReadBytes
                0x9d016f30                UserFlashPageWriteBytes
                0x9d017064                PrintSettings
 .text          0x9d017328      0x46c /opt/microchip/mplabc32/v2.02/bin/../lib/gcc/pic32mx/4.5.1/libgcc.a(_umoddi3.o)
                0x9d017328                __umoddi3
 .text          0x9d017794      0x460 build/Debug/debug/_ext/1472/BerkeleyTCPServerDemo.o
                0x9d017794                BerkeleyTCPServerDemo
 .text          0x9d017bf4      0x448 /opt/microchip/mplabc32/v2.02/bin/../lib/gcc/pic32mx/4.5.1/libgcc.a(_udivdi3.o)
                0x9d017bf4                __udivdi3
 .text          0x9d01803c      0x428 build/Debug/debug/_ext/867694782/Announce.o
                0x9d01803c                AnnounceIP
                0x9d018224                DiscoveryTask

.rodata         0x9d018464      0x420
 .rodata        0x9d018464      0x420 build/Debug/debug/_ext/1472/main.o

.text           0x9d018884      0xe40
 .text          0x9d018884      0x3dc /opt/microchip/mplabc32/v2.02/bin/../lib/gcc/pic32mx/4.5.1/../../../../pic32mx/lib/libm.a(fpmod32.o)
                0x9d018884                fmodf
                0x9d018884                fpfmod
                0x9d0189c8                fpfrexp
                0x9d0189c8                frexpf
                0x9d018a4c                fpldexp
                0x9d018a4c                __mchp_ldexpf
                0x9d018b90                modff
                0x9d018b90                fpmodf
 .text          0x9d018c60      0x3d4 build/Debug/debug/_ext/867694782/StackTsk.o
                0x9d018c60                StackInit
                0x9d018d14                StackTask
                0x9d019004                StackApplications
 .text          0x9d019034      0x348 build/Debug/debug/_ext/867694782/IP.o
                0x9d019034                IPGetHeader
                0x9d019174                IPPutHeader
                0x9d0192a0                IPSetRxBuffer
 .text          0x9d01937c      0x348 build/Debug/debug/_ext/1472/MyTFTP.o
                0x9d01937c                MyTFTPClient

.dinit          0x9d0196c4      0x344
 .dinit         0x9d0196c4      0x344 data_init

.text           0x9d019a08      0x338
 .text          0x9d019a08      0x338 build/Debug/debug/_ext/867694782/Tick.o
                0x9d019a08                TickInit
                0x9d019b40                TickGet
                0x9d019b78                TickGetDiv256
                0x9d019be8                TickGetDiv64K
                0x9d019c58                TickConvertToMilliseconds
                0x9d019cc0                _T1Interrupt

.text.malloc    0x9d019d40      0x26c
 .text.malloc   0x9d019d40      0x26c /opt/microchip/mplabc32/v2.02/bin/../lib/gcc/pic32mx/4.5.1/../../../../pic32mx/lib/libc.a(malloc.o)
                0x9d019d40                malloc

.text.EthRxBuffersAppend
                0x9d019fac      0x264
 .text.EthRxBuffersAppend
                0x9d019fac      0x264 /opt/microchip/mplabc32/v2.02/bin/../lib/gcc/pic32mx/4.5.1/../../../../pic32mx/lib/libmchp_peripheral_32MX795F512L.a(eth_rx_buffers_append_lib.o)
                0x9d019fac                EthRxBuffersAppend

.text.scale     0x9d01a210      0x260
 .text.scale    0x9d01a210      0x260 /opt/microchip/mplabc32/v2.02/bin/../lib/gcc/pic32mx/4.5.1/../../../../pic32mx/lib/libc.a(doprnt_cdfFnopsuxX.eo)

.text.realloc   0x9d01a470      0x220
 .text.realloc  0x9d01a470      0x220 /opt/microchip/mplabc32/v2.02/bin/../lib/gcc/pic32mx/4.5.1/../../../../pic32mx/lib/libc.a(malloc.o)
                0x9d01a470                realloc

.text.__floatdisf
                0x9d01a690      0x214
 .text.__floatdisf
                0x9d01a690      0x214 /opt/microchip/mplabc32/v2.02/bin/../lib/gcc/pic32mx/4.5.1/../../../../pic32mx/lib/libe.a(_floatdisf.o)
                0x9d01a690                __floatdisf

.text._EthAckPacket
                0x9d01a8a4      0x1dc
 .text._EthAckPacket
                0x9d01a8a4      0x1dc /opt/microchip/mplabc32/v2.02/bin/../lib/gcc/pic32mx/4.5.1/../../../../pic32mx/lib/libmchp_peripheral_32MX795F512L.a(eth_ack_packet_lib.o)
                0x9d01a8a4                _EthAckPacket

.text           0x9d01aa80      0x354
 .text          0x9d01aa80      0x1b4 build/Debug/debug/_ext/867694782/ETHPIC32ExtPhyDP83848.o
                0x9d01aa80                EthPhyConfigureMII
                0x9d01ab24                EthPhyConfigureMdix
                0x9d01abe8                EthPhyMIIMAddress
                0x9d01ac0c                EthPhyMIIMClock
 .text          0x9d01ac34      0x1a0 /opt/microchip/mplabc32/v2.02/bin/../lib/gcc/pic32mx/4.5.1/../../../../pic32mx/lib/libc.a(strcpy.o)
                0x9d01ac34                strcpy

.text._sbrk_init
                0x9d01add4      0x194
 .text._sbrk_init
                0x9d01add4      0x194 /opt/microchip/mplabc32/v2.02/bin/../lib/gcc/pic32mx/4.5.1/../../../../pic32mx/lib/libc.a(sbrk.o)
                0x9d01add4                _sbrk_init

.rodata         0x9d01af68      0x188
 .rodata        0x9d01af68      0x188 build/Debug/debug/_ext/867694782/TFTPc.o

.text._EthRxAckBuffer
                0x9d01b0f0      0x184
 .text._EthRxAckBuffer
                0x9d01b0f0      0x184 /opt/microchip/mplabc32/v2.02/bin/../lib/gcc/pic32mx/4.5.1/../../../../pic32mx/lib/libmchp_peripheral_32MX795F512L.a(eth_ack_packet_lib.o)

.text.EthRxGetPacket
                0x9d01b274      0x180
 .text.EthRxGetPacket
                0x9d01b274      0x180 /opt/microchip/mplabc32/v2.02/bin/../lib/gcc/pic32mx/4.5.1/../../../../pic32mx/lib/libmchp_peripheral_32MX795F512L.a(eth_rx_get_packet_lib.o)
                0x9d01b274                EthRxGetPacket

.text           0x9d01b3f4      0x448
 .text          0x9d01b3f4      0x178 build/Debug/debug/_ext/1472/PingDemo.o
                0x9d01b3f4                PingDemo
 .text          0x9d01b56c      0x168 /opt/microchip/mplabc32/v2.02/bin/../lib/gcc/pic32mx/4.5.1/../../../../pic32mx/lib/libc.a(memcpy.o)
                0x9d01b56c                memcpy
 .text          0x9d01b6d4      0x168 /opt/microchip/mplabc32/v2.02/bin/../lib/gcc/pic32mx/4.5.1/../../../../pic32mx/lib/libc.a(strlen.o)
                0x9d01b6d4                strlen

.text.EthTxSendPacket
                0x9d01b83c      0x150
 .text.EthTxSendPacket
                0x9d01b83c      0x150 /opt/microchip/mplabc32/v2.02/bin/../lib/gcc/pic32mx/4.5.1/../../../../pic32mx/lib/libmchp_peripheral_32MX795F512L.a(eth_tx_packet_lib.o)
                0x9d01b83c                EthTxSendPacket

.text._EthAppendBusyList
                0x9d01b98c      0x144
 .text._EthAppendBusyList
                0x9d01b98c      0x144 /opt/microchip/mplabc32/v2.02/bin/../lib/gcc/pic32mx/4.5.1/../../../../pic32mx/lib/libmchp_peripheral_32MX795F512L.a(_eth_append_busy_list_lib.o)
                0x9d01b98c                _EthAppendBusyList

.text.fputc     0x9d01bad0      0x140
 .text.fputc    0x9d01bad0      0x140 /opt/microchip/mplabc32/v2.02/bin/../lib/gcc/pic32mx/4.5.1/../../../../pic32mx/lib/libc.a(_fputc_simple.o)
                0x9d01bad0                fputc

.text.EthDescriptorsPoolAdd
                0x9d01bc10      0x134
 .text.EthDescriptorsPoolAdd
                0x9d01bc10      0x134 /opt/microchip/mplabc32/v2.02/bin/../lib/gcc/pic32mx/4.5.1/../../../../pic32mx/lib/libmchp_peripheral_32MX795F512L.a(eth_descriptors_add_lib.o)
                0x9d01bc10                EthDescriptorsPoolAdd

.text._flsbuf   0x9d01bd44      0x12c
 .text._flsbuf  0x9d01bd44      0x12c /opt/microchip/mplabc32/v2.02/bin/../lib/gcc/pic32mx/4.5.1/../../../../pic32mx/lib/libc.a(_flsbuf_simple.o)
                0x9d01bd44                _flsbuf

.text.EthDescriptorsAdd
                0x9d01be70      0x12c
 .text.EthDescriptorsAdd
                0x9d01be70      0x12c /opt/microchip/mplabc32/v2.02/bin/../lib/gcc/pic32mx/4.5.1/../../../../pic32mx/lib/libmchp_peripheral_32MX795F512L.a(eth_descriptors_add_lib.o)
                0x9d01be70                EthDescriptorsAdd

.text           0x9d01bf9c      0x120
 .text          0x9d01bf9c      0x120 /opt/microchip/mplabc32/v2.02/bin/../lib/gcc/pic32mx/4.5.1/../../../../pic32mx/lib/libc.a(strcmp.o)
                0x9d01bf9c                strcmp

.text._NVMOperation
                0x9d01c0bc      0x114
 .text._NVMOperation
                0x9d01c0bc      0x114 /opt/microchip/mplabc32/v2.02/bin/../lib/gcc/pic32mx/4.5.1/../../../../pic32mx/lib/libmchp_peripheral_32MX795F512L.a(nvm_operation_lib.o)
                0x9d01c0bc                _NVMOperation

.rodata         0x9d01c1d0      0x104
 .rodata        0x9d01c1d0      0x104 /opt/microchip/mplabc32/v2.02/bin/../lib/gcc/pic32mx/4.5.1/../../../../pic32mx/lib/libc.a(ctype.o)
                0x9d01c1d0                _ctype

.text           0x9d01c2d4       0xf0
 .text          0x9d01c2d4       0xf0 build/Debug/debug/_ext/867694782/Delay.o
                0x9d01c2d4                DelayMs
                0x9d01c368                Delay10us

.text.strtok    0x9d01c3c4       0xf0
 .text.strtok   0x9d01c3c4       0xf0 /opt/microchip/mplabc32/v2.02/bin/../lib/gcc/pic32mx/4.5.1/../../../../pic32mx/lib/libc.a(strtok.o)
                0x9d01c3c4                strtok

.rodata         0x9d01c4b8       0xe0
 .rodata        0x9d01c4b8       0xe0 /opt/microchip/mplabc32/v2.02/bin/../lib/gcc/pic32mx/4.5.1/../../../../pic32mx/lib/libc.a(doprnt_cdfFnopsuxX.eo)

.text           0x9d01c598       0xd4
 .text          0x9d01c598       0xd4 /opt/microchip/mplabc32/v2.02/bin/../lib/gcc/pic32mx/4.5.1/libgcc.a(_floatundisf.o)
                0x9d01c598                __floatundisf

.rodata         0x9d01c66c       0xd0
 .rodata        0x9d01c66c       0xd0 build/Debug/debug/_ext/1472/Settings.o

.text.general_exception
                0x9d01c73c       0xd0
 .text.general_exception
                0x9d01c73c       0xd0 /opt/microchip/mplabc32/v2.02/bin/../lib/gcc/pic32mx/4.5.1/../../../../pic32mx/lib/libc.a(general-exception.o)
                0x9d01c73c                _general_exception_context

.text._sbrk     0x9d01c80c       0xc4
 .text._sbrk    0x9d01c80c       0xc4 /opt/microchip/mplabc32/v2.02/bin/../lib/gcc/pic32mx/4.5.1/../../../../pic32mx/lib/libc.a(sbrk.o)
                0x9d01c80c                _sbrk

.text.EthTxSendBuffer
                0x9d01c8d0       0xc4
 .text.EthTxSendBuffer
                0x9d01c8d0       0xc4 /opt/microchip/mplabc32/v2.02/bin/../lib/gcc/pic32mx/4.5.1/../../../../pic32mx/lib/libmchp_peripheral_32MX795F512L.a(eth_tx_packet_lib.o)
                0x9d01c8d0                EthTxSendBuffer

.text.EthInit   0x9d01c994       0xb4
 .text.EthInit  0x9d01c994       0xb4 /opt/microchip/mplabc32/v2.02/bin/../lib/gcc/pic32mx/4.5.1/../../../../pic32mx/lib/libmchp_peripheral_32MX795F512L.a(eth_init_lib.o)
                0x9d01c994                EthInit

.text.EthMACOpen
                0x9d01ca48       0xb4
 .text.EthMACOpen
                0x9d01ca48       0xb4 /opt/microchip/mplabc32/v2.02/bin/../lib/gcc/pic32mx/4.5.1/../../../../pic32mx/lib/libmchp_peripheral_32MX795F512L.a(eth_mac_open_lib.o)
                0x9d01ca48                EthMACOpen

.text._EthTxSchedBuffer
                0x9d01cafc       0xac
 .text._EthTxSchedBuffer
                0x9d01cafc       0xac /opt/microchip/mplabc32/v2.02/bin/../lib/gcc/pic32mx/4.5.1/../../../../pic32mx/lib/libmchp_peripheral_32MX795F512L.a(eth_tx_packet_lib.o)

.text           0x9d01cba8       0xa8
 .text          0x9d01cba8       0xa8 /opt/microchip/mplabc32/v2.02/bin/../lib/gcc/pic32mx/4.5.1/../../../../pic32mx/lib/libc.a(memset.o)
                0x9d01cba8                memset

.text.atoi      0x9d01cc50       0xa4
 .text.atoi     0x9d01cc50       0xa4 /opt/microchip/mplabc32/v2.02/bin/../lib/gcc/pic32mx/4.5.1/../../../../pic32mx/lib/libc.a(atoi.o)
                0x9d01cc50                atoi

.text.EthMIIMInit
                0x9d01ccf4       0xa0
 .text.EthMIIMInit
                0x9d01ccf4       0xa0 /opt/microchip/mplabc32/v2.02/bin/../lib/gcc/pic32mx/4.5.1/../../../../pic32mx/lib/libmchp_peripheral_32MX795F512L.a(eth_miim_legacy.o)
                0x9d01ccf4                EthMIIMInit

.text           0x9d01cd94       0x98
 .text          0x9d01cd94       0x98 /opt/microchip/mplabc32/v2.02/bin/../lib/gcc/pic32mx/4.5.1/../../../../pic32mx/lib/libc.a(memcmp.o)
                0x9d01cd94                memcmp

.rodata         0x9d01ce2c       0x94
 .rodata        0x9d01ce2c       0x94 build/Debug/debug/_ext/1472/i2c_support.o

.text.StarterKitIO
                0x9d01cec0       0x8c
 .text.StarterKitIO
                0x9d01cec0       0x8c /opt/microchip/mplabc32/v2.02/bin/../lib/gcc/pic32mx/4.5.1/../../../../pic32mx/lib/libdebug.a(db_utils.o)
                0x9d01cec0                _pic32mxsk_init
                0x9d01cecc                db_puts
                0x9d01cedc                db_gets
                0x9d01ceec                _mon_write
                0x9d01cf04                _mon_putc
                0x9d01cf28                _mon_getc

.text._EthTxSchedList
                0x9d01cf4c       0x8c
 .text._EthTxSchedList
                0x9d01cf4c       0x8c /opt/microchip/mplabc32/v2.02/bin/../lib/gcc/pic32mx/4.5.1/../../../../pic32mx/lib/libmchp_peripheral_32MX795F512L.a(eth_tx_packet_lib.o)

.text.write     0x9d01cfd8       0x88
 .text.write    0x9d01cfd8       0x88 /opt/microchip/mplabc32/v2.02/bin/../lib/gcc/pic32mx/4.5.1/../../../../pic32mx/lib/libc.a(write.o)
                0x9d01cfd8                write

.text.EthMIIMConfig
                0x9d01d060       0x80
 .text.EthMIIMConfig
                0x9d01d060       0x80 /opt/microchip/mplabc32/v2.02/bin/../lib/gcc/pic32mx/4.5.1/../../../../pic32mx/lib/libmchp_peripheral_32MX795F512L.a(eth_miim_access.o)
                0x9d01d060                EthMIIMConfig

.text.fputs     0x9d01d0e0       0x78
 .text.fputs    0x9d01d0e0       0x78 /opt/microchip/mplabc32/v2.02/bin/../lib/gcc/pic32mx/4.5.1/../../../../pic32mx/lib/libc.a(puts.o)
                0x9d01d0e0                fputs

.text.SoftReset
                0x9d01d158       0x78
 .text.SoftReset
                0x9d01d158       0x78 /opt/microchip/mplabc32/v2.02/bin/../lib/gcc/pic32mx/4.5.1/../../../../pic32mx/lib/libmchp_peripheral_32MX795F512L.a(soft_reset_lib.o)
                0x9d01d158                SoftReset

.text.EthTxGetBufferStatus
                0x9d01d1d0       0x70
 .text.EthTxGetBufferStatus
                0x9d01d1d0       0x70 /opt/microchip/mplabc32/v2.02/bin/../lib/gcc/pic32mx/4.5.1/../../../../pic32mx/lib/libmchp_peripheral_32MX795F512L.a(eth_tx_packet_lib.o)
                0x9d01d1d0                EthTxGetBufferStatus

.text.strcspn   0x9d01d240       0x6c
 .text.strcspn  0x9d01d240       0x6c /opt/microchip/mplabc32/v2.02/bin/../lib/gcc/pic32mx/4.5.1/../../../../pic32mx/lib/libc.a(strcspn.o)
                0x9d01d240                strcspn

.text.strspn    0x9d01d2ac       0x6c
 .text.strspn   0x9d01d2ac       0x6c /opt/microchip/mplabc32/v2.02/bin/../lib/gcc/pic32mx/4.5.1/../../../../pic32mx/lib/libc.a(strspn.o)
                0x9d01d2ac                strspn

.text.EthRxFiltersPMSet
                0x9d01d318       0x6c
 .text.EthRxFiltersPMSet
                0x9d01d318       0x6c /opt/microchip/mplabc32/v2.02/bin/../lib/gcc/pic32mx/4.5.1/../../../../pic32mx/lib/libmchp_peripheral_32MX795F512L.a(eth_rx_filters_lib.o)
                0x9d01d318                EthRxFiltersPMSet

.rodata         0x9d01d384       0x68
 .rodata        0x9d01d384       0x68 build/Debug/debug/_ext/1472/BerkeleyTCPServerDemo.o

.text._sprintf_cdfFnopsuxX
                0x9d01d3ec       0x68
 .text._sprintf_cdfFnopsuxX
                0x9d01d3ec       0x68 /opt/microchip/mplabc32/v2.02/bin/../lib/gcc/pic32mx/4.5.1/../../../../pic32mx/lib/libc.a(sprintf_cdfFnopsuxX.eo)
                0x9d01d3ec                _sprintf_cdfFnopsuxX
                0x9d01d3ec                _sprintf_cdnopsuxX
                0x9d01d3ec                _sprintf_cdnopuxX

.rodata         0x9d01d454       0x68
 .rodata        0x9d01d454       0x68 /opt/microchip/mplabc32/v2.02/bin/../lib/gcc/pic32mx/4.5.1/../../../../pic32mx/lib/libc.a(powers.o)
                0x9d01d454                _powers_f
                0x9d01d488                _npowers_f

.text.EthMIIMReadReg
                0x9d01d4bc       0x60
 .text.EthMIIMReadReg
                0x9d01d4bc       0x60 /opt/microchip/mplabc32/v2.02/bin/../lib/gcc/pic32mx/4.5.1/../../../../pic32mx/lib/libmchp_peripheral_32MX795F512L.a(eth_miim_legacy.o)
                0x9d01d4bc                EthMIIMReadReg

.text.INTEnable
                0x9d01d51c       0x58
 .text.INTEnable
                0x9d01d51c       0x58 /opt/microchip/mplabc32/v2.02/bin/../lib/gcc/pic32mx/4.5.1/../../../../pic32mx/lib/libmchp_peripheral_32MX795F512L.a(int_tbl_lib.o)
                0x9d01d51c                INTEnable

.rodata         0x9d01d574       0x54
 .rodata        0x9d01d574       0x54 /opt/microchip/mplabc32/v2.02/bin/../lib/gcc/pic32mx/4.5.1/../../../../pic32mx/lib/libmchp_peripheral_32MX795F512L.a(_ports_tbl_libp.o)
                0x9d01d574                PortRegTbl

.text.I2CBusIsIdle
                0x9d01d5c8       0x54
 .text.I2CBusIsIdle
                0x9d01d5c8       0x54 /opt/microchip/mplabc32/v2.02/bin/../lib/gcc/pic32mx/4.5.1/../../../../pic32mx/lib/libmchp_peripheral_32MX795F512L.a(I2CBusIsIdle.o)
                0x9d01d5c8                I2CBusIsIdle

.text.rand      0x9d01d61c       0x50
 .text.rand     0x9d01d61c       0x50 /opt/microchip/mplabc32/v2.02/bin/../lib/gcc/pic32mx/4.5.1/../../../../pic32mx/lib/libc.a(rand.o)
                0x9d01d61c                rand

.text.sbrk      0x9d01d66c       0x50
 .text.sbrk     0x9d01d66c       0x50 /opt/microchip/mplabc32/v2.02/bin/../lib/gcc/pic32mx/4.5.1/../../../../pic32mx/lib/libc.a(sbrk.o)
                0x9d01d66c                sbrk

.text.calloc    0x9d01d6bc       0x50
 .text.calloc   0x9d01d6bc       0x50 /opt/microchip/mplabc32/v2.02/bin/../lib/gcc/pic32mx/4.5.1/../../../../pic32mx/lib/libc.a(calloc.o)
                0x9d01d6bc                calloc

.text           0x9d01d70c       0x4c
 .text          0x9d01d70c       0x4c /opt/microchip/mplabc32/v2.02/bin/../lib/gcc/pic32mx/4.5.1/libgcc.a(floatunsisf.o)
                0x9d01d70c                __floatunsisf

.text.EthMIIMWriteRegWait
                0x9d01d758       0x4c
 .text.EthMIIMWriteRegWait
                0x9d01d758       0x4c /opt/microchip/mplabc32/v2.02/bin/../lib/gcc/pic32mx/4.5.1/../../../../pic32mx/lib/libmchp_peripheral_32MX795F512L.a(eth_miim_legacy.o)
                0x9d01d758                EthMIIMWriteRegWait

.text.I2CAcknowledgeByte
                0x9d01d7a4       0x4c
 .text.I2CAcknowledgeByte
                0x9d01d7a4       0x4c /opt/microchip/mplabc32/v2.02/bin/../lib/gcc/pic32mx/4.5.1/../../../../pic32mx/lib/libmchp_peripheral_32MX795F512L.a(I2CAcknowledgeByte.o)
                0x9d01d7a4                I2CAcknowledgeByte

.text.EthMACSetAddress
                0x9d01d7f0       0x48
 .text.EthMACSetAddress
                0x9d01d7f0       0x48 /opt/microchip/mplabc32/v2.02/bin/../lib/gcc/pic32mx/4.5.1/../../../../pic32mx/lib/libmchp_peripheral_32MX795F512L.a(eth_mac_set_address_max_lib.o)
                0x9d01d7f0                EthMACSetAddress

.text.I2CSetFrequency
                0x9d01d838       0x48
 .text.I2CSetFrequency
                0x9d01d838       0x48 /opt/microchip/mplabc32/v2.02/bin/../lib/gcc/pic32mx/4.5.1/../../../../pic32mx/lib/libmchp_peripheral_32MX795F512L.a(I2CSetFrequency.o)
                0x9d01d838                I2CSetFrequency

.text.puts      0x9d01d880       0x44
 .text.puts     0x9d01d880       0x44 /opt/microchip/mplabc32/v2.02/bin/../lib/gcc/pic32mx/4.5.1/../../../../pic32mx/lib/libc.a(puts.o)
                0x9d01d880                puts

.text.EthMACGetAddress
                0x9d01d8c4       0x44
 .text.EthMACGetAddress
                0x9d01d8c4       0x44 /opt/microchip/mplabc32/v2.02/bin/../lib/gcc/pic32mx/4.5.1/../../../../pic32mx/lib/libmchp_peripheral_32MX795F512L.a(eth_mac_set_address_max_lib.o)
                0x9d01d8c4                EthMACGetAddress

.text.I2CGetStatus
                0x9d01d908       0x44
 .text.I2CGetStatus
                0x9d01d908       0x44 /opt/microchip/mplabc32/v2.02/bin/../lib/gcc/pic32mx/4.5.1/../../../../pic32mx/lib/libmchp_peripheral_32MX795F512L.a(I2CGetStatus.o)
                0x9d01d908                I2CGetStatus

.rodata         0x9d01d94c       0x40
 .rodata        0x9d01d94c       0x40 build/Debug/debug/_ext/1472/HodoCrate.o

.text._printf_cdnopsuxX
                0x9d01d98c       0x40
 .text._printf_cdnopsuxX
                0x9d01d98c       0x40 /opt/microchip/mplabc32/v2.02/bin/../lib/gcc/pic32mx/4.5.1/../../../../pic32mx/lib/libc.a(printf_cdnopsuxX.eo)
                0x9d01d98c                _printf_0
                0x9d01d98c                _printf_cdnopsuxX
                0x9d01d98c                _printf_cdnopuxX
                0x9d01d98c                _printf_s

.text.EthMIIMReadStart
                0x9d01d9cc       0x40
 .text.EthMIIMReadStart
                0x9d01d9cc       0x40 /opt/microchip/mplabc32/v2.02/bin/../lib/gcc/pic32mx/4.5.1/../../../../pic32mx/lib/libmchp_peripheral_32MX795F512L.a(eth_miim_access.o)
                0x9d01d9cc                EthMIIMReadStart

.text.PORTSetPinsDigitalIn
                0x9d01da0c       0x40
 .text.PORTSetPinsDigitalIn
                0x9d01da0c       0x40 /opt/microchip/mplabc32/v2.02/bin/../lib/gcc/pic32mx/4.5.1/../../../../pic32mx/lib/libmchp_peripheral_32MX795F512L.a(port_set_pins_digital_in_lib.o)
                0x9d01da0c                PORTSetPinsDigitalIn

.text.PORTSetPinsDigitalOut
                0x9d01da4c       0x40
 .text.PORTSetPinsDigitalOut
                0x9d01da4c       0x40 /opt/microchip/mplabc32/v2.02/bin/../lib/gcc/pic32mx/4.5.1/../../../../pic32mx/lib/libmchp_peripheral_32MX795F512L.a(port_set_pins_digital_out_lib.o)
                0x9d01da4c                PORTSetPinsDigitalOut

.text.EthRxGetBuffer
                0x9d01da8c       0x3c
 .text.EthRxGetBuffer
                0x9d01da8c       0x3c /opt/microchip/mplabc32/v2.02/bin/../lib/gcc/pic32mx/4.5.1/../../../../pic32mx/lib/libmchp_peripheral_32MX795F512L.a(eth_rx_get_packet_lib.o)
                0x9d01da8c                EthRxGetBuffer

.text.INTSetVectorPriority
                0x9d01dac8       0x3c
 .text.INTSetVectorPriority
                0x9d01dac8       0x3c /opt/microchip/mplabc32/v2.02/bin/../lib/gcc/pic32mx/4.5.1/../../../../pic32mx/lib/libmchp_peripheral_32MX795F512L.a(int_tbl_lib.o)
                0x9d01dac8                INTSetVectorPriority

.text.INTSetVectorSubPriority
                0x9d01db04       0x3c
 .text.INTSetVectorSubPriority
                0x9d01db04       0x3c /opt/microchip/mplabc32/v2.02/bin/../lib/gcc/pic32mx/4.5.1/../../../../pic32mx/lib/libmchp_peripheral_32MX795F512L.a(int_tbl_lib.o)
                0x9d01db04                INTSetVectorSubPriority

.text._EthFindPacket
                0x9d01db40       0x38
 .text._EthFindPacket
                0x9d01db40       0x38 /opt/microchip/mplabc32/v2.02/bin/../lib/gcc/pic32mx/4.5.1/../../../../pic32mx/lib/libmchp_peripheral_32MX795F512L.a(eth_tx_packet_lib.o)
                0x9d01db40                _EthFindPacket

.text.EthMIIMWriteStart
                0x9d01db78       0x38
 .text.EthMIIMWriteStart
                0x9d01db78       0x38 /opt/microchip/mplabc32/v2.02/bin/../lib/gcc/pic32mx/4.5.1/../../../../pic32mx/lib/libmchp_peripheral_32MX795F512L.a(eth_miim_access.o)
                0x9d01db78                EthMIIMWriteStart

.text.EthMIIMWriteReg
                0x9d01dbb0       0x38
 .text.EthMIIMWriteReg
                0x9d01dbb0       0x38 /opt/microchip/mplabc32/v2.02/bin/../lib/gcc/pic32mx/4.5.1/../../../../pic32mx/lib/libmchp_peripheral_32MX795F512L.a(eth_miim_legacy.o)
                0x9d01dbb0                EthMIIMWriteReg

.text.NVMWriteRow
                0x9d01dbe8       0x38
 .text.NVMWriteRow
                0x9d01dbe8       0x38 /opt/microchip/mplabc32/v2.02/bin/../lib/gcc/pic32mx/4.5.1/../../../../pic32mx/lib/libmchp_peripheral_32MX795F512L.a(nvm_write_row_lib.o)
                0x9d01dbe8                NVMWriteRow

.text.I2CReceiverEnable
                0x9d01dc20       0x38
 .text.I2CReceiverEnable
                0x9d01dc20       0x38 /opt/microchip/mplabc32/v2.02/bin/../lib/gcc/pic32mx/4.5.1/../../../../pic32mx/lib/libmchp_peripheral_32MX795F512L.a(I2CReceiverEnable.o)
                0x9d01dc20                I2CReceiverEnable

.text.EthMIIMScanStart
                0x9d01dc58       0x34
 .text.EthMIIMScanStart
                0x9d01dc58       0x34 /opt/microchip/mplabc32/v2.02/bin/../lib/gcc/pic32mx/4.5.1/../../../../pic32mx/lib/libmchp_peripheral_32MX795F512L.a(eth_miim_access.o)
                0x9d01dc58                EthMIIMScanStart

.text.INTEnableSystemMultiVectoredInt
                0x9d01dc8c       0x34
 .text.INTEnableSystemMultiVectoredInt
                0x9d01dc8c       0x34 /opt/microchip/mplabc32/v2.02/bin/../lib/gcc/pic32mx/4.5.1/../../../../pic32mx/lib/libmchp_peripheral_32MX795F512L.a(int_enable_mv_int_lib.o)
                0x9d01dc8c                INTEnableSystemMultiVectoredInt

.text.I2CSendByte
                0x9d01dcc0       0x34
 .text.I2CSendByte
                0x9d01dcc0       0x34 /opt/microchip/mplabc32/v2.02/bin/../lib/gcc/pic32mx/4.5.1/../../../../pic32mx/lib/libmchp_peripheral_32MX795F512L.a(I2CSendByte.o)
                0x9d01dcc0                I2CSendByte

.text.I2CStart  0x9d01dcf4       0x34
 .text.I2CStart
                0x9d01dcf4       0x34 /opt/microchip/mplabc32/v2.02/bin/../lib/gcc/pic32mx/4.5.1/../../../../pic32mx/lib/libmchp_peripheral_32MX795F512L.a(I2CStart.o)
                0x9d01dcf4                I2CStart

.text.EthTxAcknowledgeBuffer
                0x9d01dd28       0x30
 .text.EthTxAcknowledgeBuffer
                0x9d01dd28       0x30 /opt/microchip/mplabc32/v2.02/bin/../lib/gcc/pic32mx/4.5.1/../../../../pic32mx/lib/libmchp_peripheral_32MX795F512L.a(eth_ack_packet_lib.o)
                0x9d01dd28                EthTxAcknowledgeBuffer

.text.EthTxAckBuffer
                0x9d01dd58       0x30
 .text.EthTxAckBuffer
                0x9d01dd58       0x30 /opt/microchip/mplabc32/v2.02/bin/../lib/gcc/pic32mx/4.5.1/../../../../pic32mx/lib/libmchp_peripheral_32MX795F512L.a(eth_ack_packet_lib.o)
                0x9d01dd58                EthTxAckBuffer

.text.EthRxSetBufferSize
                0x9d01dd88       0x30
 .text.EthRxSetBufferSize
                0x9d01dd88       0x30 /opt/microchip/mplabc32/v2.02/bin/../lib/gcc/pic32mx/4.5.1/../../../../pic32mx/lib/libmchp_peripheral_32MX795F512L.a(eth_rx_set_buffer_size_lib.o)
                0x9d01dd88                EthRxSetBufferSize

.text.INTGetVectorPriority
                0x9d01ddb8       0x30
 .text.INTGetVectorPriority
                0x9d01ddb8       0x30 /opt/microchip/mplabc32/v2.02/bin/../lib/gcc/pic32mx/4.5.1/../../../../pic32mx/lib/libmchp_peripheral_32MX795F512L.a(int_tbl_lib.o)
                0x9d01ddb8                INTGetVectorPriority

.text.INTGetVectorSubPriority
                0x9d01dde8       0x30
 .text.INTGetVectorSubPriority
                0x9d01dde8       0x30 /opt/microchip/mplabc32/v2.02/bin/../lib/gcc/pic32mx/4.5.1/../../../../pic32mx/lib/libmchp_peripheral_32MX795F512L.a(int_tbl_lib.o)
                0x9d01dde8                INTGetVectorSubPriority

.text.I2CRepeatStart
                0x9d01de18       0x30
 .text.I2CRepeatStart
                0x9d01de18       0x30 /opt/microchip/mplabc32/v2.02/bin/../lib/gcc/pic32mx/4.5.1/../../../../pic32mx/lib/libmchp_peripheral_32MX795F512L.a(I2CRepeatStart.o)
                0x9d01de18                I2CRepeatStart

.text._stub_sbd_memlayout
                0x9d01de48       0x2c
 .text._stub_sbd_memlayout
                0x9d01de48       0x2c /opt/microchip/mplabc32/v2.02/bin/../lib/gcc/pic32mx/4.5.1/../../../../pic32mx/lib/libc.a(sbrk.o)
                0x9d01de48                _sbd_memlayout
                0x9d01de48                _stub_sbd_memlayout

.text.INTClearFlag
                0x9d01de74       0x2c
 .text.INTClearFlag
                0x9d01de74       0x2c /opt/microchip/mplabc32/v2.02/bin/../lib/gcc/pic32mx/4.5.1/../../../../pic32mx/lib/libmchp_peripheral_32MX795F512L.a(int_tbl_lib.o)
                0x9d01de74                INTClearFlag

.text.INTSetFlag
                0x9d01dea0       0x2c
 .text.INTSetFlag
                0x9d01dea0       0x2c /opt/microchip/mplabc32/v2.02/bin/../lib/gcc/pic32mx/4.5.1/../../../../pic32mx/lib/libmchp_peripheral_32MX795F512L.a(int_tbl_lib.o)
                0x9d01dea0                INTSetFlag

.text.INTGetFlag
                0x9d01decc       0x2c
 .text.INTGetFlag
                0x9d01decc       0x2c /opt/microchip/mplabc32/v2.02/bin/../lib/gcc/pic32mx/4.5.1/../../../../pic32mx/lib/libmchp_peripheral_32MX795F512L.a(int_tbl_lib.o)
                0x9d01decc                INTGetFlag

.text.INTGetEnable
                0x9d01def8       0x2c
 .text.INTGetEnable
                0x9d01def8       0x2c /opt/microchip/mplabc32/v2.02/bin/../lib/gcc/pic32mx/4.5.1/../../../../pic32mx/lib/libmchp_peripheral_32MX795F512L.a(int_tbl_lib.o)
                0x9d01def8                INTGetEnable

.text.NVMErasePage
                0x9d01df24       0x2c
 .text.NVMErasePage
                0x9d01df24       0x2c /opt/microchip/mplabc32/v2.02/bin/../lib/gcc/pic32mx/4.5.1/../../../../pic32mx/lib/libmchp_peripheral_32MX795F512L.a(nvm_erase_page_lib.o)
                0x9d01df24                NVMErasePage

.text.strchr    0x9d01df50       0x28
 .text.strchr   0x9d01df50       0x28 /opt/microchip/mplabc32/v2.02/bin/../lib/gcc/pic32mx/4.5.1/../../../../pic32mx/lib/libc.a(strchr.o)
                0x9d01df50                strchr

.text.EthMIIMReadResult
                0x9d01df78       0x28
 .text.EthMIIMReadResult
                0x9d01df78       0x28 /opt/microchip/mplabc32/v2.02/bin/../lib/gcc/pic32mx/4.5.1/../../../../pic32mx/lib/libmchp_peripheral_32MX795F512L.a(eth_miim_access.o)
                0x9d01df78                EthMIIMReadResult

.text.I2CEnable
                0x9d01dfa0       0x28
 .text.I2CEnable
                0x9d01dfa0       0x28 /opt/microchip/mplabc32/v2.02/bin/../lib/gcc/pic32mx/4.5.1/../../../../pic32mx/lib/libmchp_peripheral_32MX795F512L.a(I2CEnable.o)
                0x9d01dfa0                I2CEnable

.rodata         0x9d01dfc8       0x24
 .rodata        0x9d01dfc8       0x24 build/Debug/debug/_ext/1472/MyTFTP.o

.text.free      0x9d01dfec       0x24
 .text.free     0x9d01dfec       0x24 /opt/microchip/mplabc32/v2.02/bin/../lib/gcc/pic32mx/4.5.1/../../../../pic32mx/lib/libc.a(malloc.o)
                0x9d01dfec                free

.text.EthMIIMScanStopWait
                0x9d01e010       0x24
 .text.EthMIIMScanStopWait
                0x9d01e010       0x24 /opt/microchip/mplabc32/v2.02/bin/../lib/gcc/pic32mx/4.5.1/../../../../pic32mx/lib/libmchp_peripheral_32MX795F512L.a(eth_miim_legacy.o)
                0x9d01e010                EthMIIMScanStopWait

.text.I2CByteWasAcknowledged
                0x9d01e034       0x24
 .text.I2CByteWasAcknowledged
                0x9d01e034       0x24 /opt/microchip/mplabc32/v2.02/bin/../lib/gcc/pic32mx/4.5.1/../../../../pic32mx/lib/libmchp_peripheral_32MX795F512L.a(I2CByteWasAcknowledged.o)
                0x9d01e034                I2CByteWasAcknowledged

.text.I2CStop   0x9d01e058       0x24
 .text.I2CStop  0x9d01e058       0x24 /opt/microchip/mplabc32/v2.02/bin/../lib/gcc/pic32mx/4.5.1/../../../../pic32mx/lib/libmchp_peripheral_32MX795F512L.a(I2CStop.o)
                0x9d01e058                I2CStop

.text.I2CTransmissionHasCompleted
                0x9d01e07c       0x24
 .text.I2CTransmissionHasCompleted
                0x9d01e07c       0x24 /opt/microchip/mplabc32/v2.02/bin/../lib/gcc/pic32mx/4.5.1/../../../../pic32mx/lib/libmchp_peripheral_32MX795F512L.a(I2CTransmissionHasCompleted.o)
                0x9d01e07c                I2CTransmissionHasCompleted

.text.I2CTransmitterIsReady
                0x9d01e0a0       0x24
 .text.I2CTransmitterIsReady
                0x9d01e0a0       0x24 /opt/microchip/mplabc32/v2.02/bin/../lib/gcc/pic32mx/4.5.1/../../../../pic32mx/lib/libmchp_peripheral_32MX795F512L.a(I2CTransmitterIsReady.o)
                0x9d01e0a0                I2CTransmitterIsReady

.text           0x9d01e0c4       0xa0
 .text          0x9d01e0c4       0x20 build/Debug/debug/_ext/100901378/WF_Spi.o
                0x9d01e0c4                MCHP_Spi_EmptyFunc
 .text          0x9d01e0e4       0x20 build/Debug/debug/_ext/100901378/WF_Eint.o
                0x9d01e0e4                MCHP_Eint_EmptyFunc
 .text          0x9d01e104       0x20 build/Debug/debug/_ext/100901378/WFDriverRaw.o
                0x9d01e104                DriverRaw_EmptyFunc
 .text          0x9d01e124       0x20 build/Debug/debug/_ext/100901378/WFDriverCom.o
                0x9d01e124                WFDriverCom_EmptyFunc
 .text          0x9d01e144       0x20 build/Debug/debug/_ext/100901378/WFMac.o
                0x9d01e144                WFMac_EmptyFunc

.text.EthMIIMScanResult
                0x9d01e164       0x20
 .text.EthMIIMScanResult
                0x9d01e164       0x20 /opt/microchip/mplabc32/v2.02/bin/../lib/gcc/pic32mx/4.5.1/../../../../pic32mx/lib/libmchp_peripheral_32MX795F512L.a(eth_miim_access.o)
                0x9d01e164                EthMIIMScanResult

.text.EthMIIMScanRead
                0x9d01e184       0x20
 .text.EthMIIMScanRead
                0x9d01e184       0x20 /opt/microchip/mplabc32/v2.02/bin/../lib/gcc/pic32mx/4.5.1/../../../../pic32mx/lib/libmchp_peripheral_32MX795F512L.a(eth_miim_legacy.o)
                0x9d01e184                EthMIIMScanRead

.text.I2CClearStatus
                0x9d01e1a4       0x20
 .text.I2CClearStatus
                0x9d01e1a4       0x20 /opt/microchip/mplabc32/v2.02/bin/../lib/gcc/pic32mx/4.5.1/../../../../pic32mx/lib/libmchp_peripheral_32MX795F512L.a(I2CClearStatus.o)
                0x9d01e1a4                I2CClearStatus

.text.I2CConfigure
                0x9d01e1c4       0x20
 .text.I2CConfigure
                0x9d01e1c4       0x20 /opt/microchip/mplabc32/v2.02/bin/../lib/gcc/pic32mx/4.5.1/../../../../pic32mx/lib/libmchp_peripheral_32MX795F512L.a(I2CConfigure.o)
                0x9d01e1c4                I2CConfigure

.text.I2CGetByte
                0x9d01e1e4       0x20
 .text.I2CGetByte
                0x9d01e1e4       0x20 /opt/microchip/mplabc32/v2.02/bin/../lib/gcc/pic32mx/4.5.1/../../../../pic32mx/lib/libmchp_peripheral_32MX795F512L.a(I2CGetByte.o)
                0x9d01e1e4                I2CGetByte

.text.I2CReceivedDataIsAvailable
                0x9d01e204       0x20
 .text.I2CReceivedDataIsAvailable
                0x9d01e204       0x20 /opt/microchip/mplabc32/v2.02/bin/../lib/gcc/pic32mx/4.5.1/../../../../pic32mx/lib/libmchp_peripheral_32MX795F512L.a(I2CReceivedDataIsAvailable.o)
                0x9d01e204                I2CReceivedDataIsAvailable

.text.EthRxAcknowledgeBuffer
                0x9d01e224       0x1c
 .text.EthRxAcknowledgeBuffer
                0x9d01e224       0x1c /opt/microchip/mplabc32/v2.02/bin/../lib/gcc/pic32mx/4.5.1/../../../../pic32mx/lib/libmchp_peripheral_32MX795F512L.a(eth_ack_packet_lib.o)
                0x9d01e224                EthRxAcknowledgeBuffer

.text.EthRxAckBuffer
                0x9d01e240       0x1c
 .text.EthRxAckBuffer
                0x9d01e240       0x1c /opt/microchip/mplabc32/v2.02/bin/../lib/gcc/pic32mx/4.5.1/../../../../pic32mx/lib/libmchp_peripheral_32MX795F512L.a(eth_ack_packet_lib.o)
                0x9d01e240                EthRxAckBuffer

.text.INTRestoreInterrupts
                0x9d01e25c       0x1c
 .text.INTRestoreInterrupts
                0x9d01e25c       0x1c /opt/microchip/mplabc32/v2.02/bin/../lib/gcc/pic32mx/4.5.1/../../../../pic32mx/lib/libmchp_peripheral_32MX795F512L.a(int_restore_interrupts_lib.o)
                0x9d01e25c                INTRestoreInterrupts

.rodata         0x9d01e278       0x18
 .rodata        0x9d01e278       0x18 build/Debug/debug/_ext/867694782/TCP.o
                0x9d01e278                TCPSocketInitializer

.text.srand     0x9d01e290       0x18
 .text.srand    0x9d01e290       0x18 /opt/microchip/mplabc32/v2.02/bin/../lib/gcc/pic32mx/4.5.1/../../../../pic32mx/lib/libc.a(rand.o)
                0x9d01e290                srand

.text           0x9d01e2a8       0x18
 .text          0x9d01e2a8       0x18 /opt/microchip/mplabc32/v2.02/bin/../lib/gcc/pic32mx/4.5.1/../../../../pic32mx/lib/libc.a(default-nmi-handler.o)
                0x9d01e2a8                _nmi_handler

.text.EthRxFiltersHTSet
                0x9d01e2c0       0x18
 .text.EthRxFiltersHTSet
                0x9d01e2c0       0x18 /opt/microchip/mplabc32/v2.02/bin/../lib/gcc/pic32mx/4.5.1/../../../../pic32mx/lib/libmchp_peripheral_32MX795F512L.a(eth_rx_filters_lib.o)
                0x9d01e2c0                EthRxFiltersHTSet

.text.CheKseg0CacheOff
                0x9d01e2d8       0x18
 .text.CheKseg0CacheOff
                0x9d01e2d8       0x18 /opt/microchip/mplabc32/v2.02/bin/../lib/gcc/pic32mx/4.5.1/../../../../pic32mx/lib/libmchp_peripheral_32MX795F512L.a(pcache.o)
                0x9d01e2d8                CheKseg0CacheOff

.text.CheKseg0CacheOn
                0x9d01e2f0       0x18
 .text.CheKseg0CacheOn
                0x9d01e2f0       0x18 /opt/microchip/mplabc32/v2.02/bin/../lib/gcc/pic32mx/4.5.1/../../../../pic32mx/lib/libmchp_peripheral_32MX795F512L.a(pcache.o)
                0x9d01e2f0                CheKseg0CacheOn

.rodata         0x9d01e308       0x14
 .rodata        0x9d01e308       0x14 build/Debug/debug/_ext/867694782/Announce.o

.text.EthMACSetMaxFrame
                0x9d01e31c       0x14
 .text.EthMACSetMaxFrame
                0x9d01e31c       0x14 /opt/microchip/mplabc32/v2.02/bin/../lib/gcc/pic32mx/4.5.1/../../../../pic32mx/lib/libmchp_peripheral_32MX795F512L.a(eth_mac_set_address_max_lib.o)
                0x9d01e31c                EthMACSetMaxFrame

.text.EthRxFiltersPMClr
                0x9d01e330       0x14
 .text.EthRxFiltersPMClr
                0x9d01e330       0x14 /opt/microchip/mplabc32/v2.02/bin/../lib/gcc/pic32mx/4.5.1/../../../../pic32mx/lib/libmchp_peripheral_32MX795F512L.a(eth_rx_filters_lib.o)
                0x9d01e330                EthRxFiltersPMClr

.rodata         0x9d01e344       0x14
 .rodata        0x9d01e344       0x14 /opt/microchip/mplabc32/v2.02/bin/../lib/gcc/pic32mx/4.5.1/../../../../pic32mx/lib/libmchp_peripheral_32MX795F512L.a(I2CPrivate.o)
                0x9d01e344                i2cBase

.text           0x9d01e358       0x10
 .text          0x9d01e358       0x10 /opt/microchip/mplabc32/v2.02/bin/../lib/gcc/pic32mx/4.5.1/../../../../pic32mx/lib/crt0.o
                0x9d01e360                __crt0_exit

.text.EthRxFiltersSet
                0x9d01e368       0x10
 .text.EthRxFiltersSet
                0x9d01e368       0x10 /opt/microchip/mplabc32/v2.02/bin/../lib/gcc/pic32mx/4.5.1/../../../../pic32mx/lib/libmchp_peripheral_32MX795F512L.a(eth_rx_filters_lib.o)
                0x9d01e368                EthRxFiltersSet

.text.EthRxFiltersClr
                0x9d01e378       0x10
 .text.EthRxFiltersClr
                0x9d01e378       0x10 /opt/microchip/mplabc32/v2.02/bin/../lib/gcc/pic32mx/4.5.1/../../../../pic32mx/lib/libmchp_peripheral_32MX795F512L.a(eth_rx_filters_lib.o)
                0x9d01e378                EthRxFiltersClr

.text.EthRxFiltersWrite
                0x9d01e388       0x10
 .text.EthRxFiltersWrite
                0x9d01e388       0x10 /opt/microchip/mplabc32/v2.02/bin/../lib/gcc/pic32mx/4.5.1/../../../../pic32mx/lib/libmchp_peripheral_32MX795F512L.a(eth_rx_filters_lib.o)
                0x9d01e388                EthRxFiltersWrite

.rodata         0x9d01e398       0x20
 .rodata        0x9d01e398       0x10 /opt/microchip/mplabc32/v2.02/bin/../lib/gcc/pic32mx/4.5.1/../../../../pic32mx/lib/libmchp_peripheral_32MX795F512L.a(eth_miim_access.o)
 .rodata        0x9d01e3a8       0x10 /opt/microchip/mplabc32/v2.02/bin/../lib/gcc/pic32mx/4.5.1/../../../../pic32mx/lib/libmchp_peripheral_32MX795F512L.a(eth_miim_legacy.o)

.text._bootstrap_exception_handler
                0x9d01e3b8        0xc
 .text._bootstrap_exception_handler
                0x9d01e3b8        0xc /opt/microchip/mplabc32/v2.02/bin/../lib/gcc/pic32mx/4.5.1/../../../../pic32mx/lib/libc.a(default-bootstrap-exception-handler.o)
                0x9d01e3b8                _bootstrap_exception_handler

.rodata         0x9d01e3c4        0x8
 .rodata        0x9d01e3c4        0x8 build/Debug/debug/_ext/867694782/ETHPIC32IntMac.o

.text.getpagesize
                0x9d01e3cc        0x8
 .text.getpagesize
                0x9d01e3cc        0x8 /opt/microchip/mplabc32/v2.02/bin/../lib/gcc/pic32mx/4.5.1/../../../../pic32mx/lib/libc.a(sbrk.o)
                0x9d01e3cc                getpagesize

.text._on_reset
                0x9d01e3d4        0x8
 .text._on_reset
                0x9d01e3d4        0x8 /opt/microchip/mplabc32/v2.02/bin/../lib/gcc/pic32mx/4.5.1/../../../../pic32mx/lib/libc.a(default-on-reset.o)
                0x9d01e3d4                _on_reset

.text._on_bootstrap
                0x9d01e3dc        0x8
 .text._on_bootstrap
                0x9d01e3dc        0x8 /opt/microchip/mplabc32/v2.02/bin/../lib/gcc/pic32mx/4.5.1/../../../../pic32mx/lib/libc.a(default-on-bootstrap.o)
                0x9d01e3dc                _on_bootstrap

.rodata         0x9d01e3e8        0x8
 .rodata        0x9d01e3e8        0x8 /opt/microchip/mplabc32/v2.02/bin/../lib/gcc/pic32mx/4.5.1/../../../../pic32mx/lib/libe.a(_floatdisf.o)

.text.ReadCoreTimer
                0x9d01e3f0        0x8
 .text.ReadCoreTimer
                0x9d01e3f0        0x8 /opt/microchip/mplabc32/v2.02/bin/../lib/gcc/pic32mx/4.5.1/../../../../pic32mx/lib/libmchp_peripheral.a(read_core_timer_lib.o)
                0x9d01e3f0                ReadCoreTimer

.text.INTDisableInterrupts
                0x9d01e3f8        0x8
 .text.INTDisableInterrupts
                0x9d01e3f8        0x8 /opt/microchip/mplabc32/v2.02/bin/../lib/gcc/pic32mx/4.5.1/../../../../pic32mx/lib/libmchp_peripheral_32MX795F512L.a(int_disable_interrupts_lib.o)
                0x9d01e3f8                INTDisableInterrupts

.text.INTEnableInterrupts
                0x9d01e400        0x8
 .text.INTEnableInterrupts
                0x9d01e400        0x8 /opt/microchip/mplabc32/v2.02/bin/../lib/gcc/pic32mx/4.5.1/../../../../pic32mx/lib/libmchp_peripheral_32MX795F512L.a(int_enable_interrupts_lib.o)
                0x9d01e400                INTEnableInterrupts

.rodata         0x9d01e408        0x8
 .rodata        0x9d01e408        0x8 /opt/microchip/mplabc32/v2.02/bin/../lib/gcc/pic32mx/4.5.1/libgcc.a(_floatundisf.o)

.text%z484      0x00000000        0x0
 .text          0x00000000        0x0 /opt/microchip/mplabc32/v2.02/bin/../lib/gcc/pic32mx/4.5.1/../../../../pic32mx/lib/./proc/32MX795F512L/processor.o

.text%z485      0x00000000        0x0
 .text          0x00000000        0x0 /opt/microchip/mplabc32/v2.02/bin/../lib/gcc/pic32mx/4.5.1/../../../../pic32mx/lib/libc.a(calloc.o)

.text%z486      0x00000000        0x0
 .text          0x00000000        0x0 /opt/microchip/mplabc32/v2.02/bin/../lib/gcc/pic32mx/4.5.1/../../../../pic32mx/lib/libmchp_peripheral_32MX795F512L.a(I2CPrivate.o)

.text%z487      0x00000000        0x0
 .text          0x00000000        0x0 /opt/microchip/mplabc32/v2.02/bin/../lib/gcc/pic32mx/4.5.1/../../../../pic32mx/lib/libmchp_peripheral_32MX795F512L.a(int_enable_interrupts_lib.o)

.text%z488      0x00000000        0x0
 .text          0x00000000        0x0 /opt/microchip/mplabc32/v2.02/bin/../lib/gcc/pic32mx/4.5.1/../../../../pic32mx/lib/libmchp_peripheral_32MX795F512L.a(I2CTransmitterIsReady.o)

.text%z489      0x00000000        0x0
 .text          0x00000000        0x0 /opt/microchip/mplabc32/v2.02/bin/../lib/gcc/pic32mx/4.5.1/../../../../pic32mx/lib/libmchp_peripheral_32MX795F512L.a(I2CTransmissionHasCompleted.o)

.text%z490      0x00000000        0x0
 .text          0x00000000        0x0 /opt/microchip/mplabc32/v2.02/bin/../lib/gcc/pic32mx/4.5.1/../../../../pic32mx/lib/libmchp_peripheral_32MX795F512L.a(I2CStop.o)

.text%z491      0x00000000        0x0
 .text          0x00000000        0x0 /opt/microchip/mplabc32/v2.02/bin/../lib/gcc/pic32mx/4.5.1/../../../../pic32mx/lib/libmchp_peripheral_32MX795F512L.a(I2CStart.o)

.text%z492      0x00000000        0x0
 .text          0x00000000        0x0 /opt/microchip/mplabc32/v2.02/bin/../lib/gcc/pic32mx/4.5.1/../../../../pic32mx/lib/libmchp_peripheral_32MX795F512L.a(I2CSetFrequency.o)

.text%z493      0x00000000        0x0
 .text          0x00000000        0x0 /opt/microchip/mplabc32/v2.02/bin/../lib/gcc/pic32mx/4.5.1/../../../../pic32mx/lib/libmchp_peripheral_32MX795F512L.a(I2CSendByte.o)

.text%z494      0x00000000        0x0
 .text          0x00000000        0x0 /opt/microchip/mplabc32/v2.02/bin/../lib/gcc/pic32mx/4.5.1/../../../../pic32mx/lib/libmchp_peripheral_32MX795F512L.a(I2CRepeatStart.o)

.text%z495      0x00000000        0x0
 .text          0x00000000        0x0 /opt/microchip/mplabc32/v2.02/bin/../lib/gcc/pic32mx/4.5.1/../../../../pic32mx/lib/libmchp_peripheral_32MX795F512L.a(I2CReceiverEnable.o)

.text%z496      0x00000000        0x0
 .text          0x00000000        0x0 /opt/microchip/mplabc32/v2.02/bin/../lib/gcc/pic32mx/4.5.1/../../../../pic32mx/lib/libmchp_peripheral_32MX795F512L.a(I2CReceivedDataIsAvailable.o)

.text%z497      0x00000000        0x0
 .text          0x00000000        0x0 /opt/microchip/mplabc32/v2.02/bin/../lib/gcc/pic32mx/4.5.1/../../../../pic32mx/lib/libmchp_peripheral_32MX795F512L.a(I2CGetStatus.o)

.text%z498      0x00000000        0x0
 .text          0x00000000        0x0 /opt/microchip/mplabc32/v2.02/bin/../lib/gcc/pic32mx/4.5.1/../../../../pic32mx/lib/libmchp_peripheral_32MX795F512L.a(I2CGetByte.o)

.text%z499      0x00000000        0x0
 .text          0x00000000        0x0 /opt/microchip/mplabc32/v2.02/bin/../lib/gcc/pic32mx/4.5.1/../../../../pic32mx/lib/libmchp_peripheral_32MX795F512L.a(I2CEnable.o)

.text%z500      0x00000000        0x0
 .text          0x00000000        0x0 /opt/microchip/mplabc32/v2.02/bin/../lib/gcc/pic32mx/4.5.1/../../../../pic32mx/lib/libmchp_peripheral_32MX795F512L.a(I2CConfigure.o)

.text%z501      0x00000000        0x0
 .text          0x00000000        0x0 /opt/microchip/mplabc32/v2.02/bin/../lib/gcc/pic32mx/4.5.1/../../../../pic32mx/lib/libmchp_peripheral_32MX795F512L.a(I2CClearStatus.o)

.text%z502      0x00000000        0x0
 .text          0x00000000        0x0 /opt/microchip/mplabc32/v2.02/bin/../lib/gcc/pic32mx/4.5.1/../../../../pic32mx/lib/libmchp_peripheral_32MX795F512L.a(I2CByteWasAcknowledged.o)

.text%z503      0x00000000        0x0
 .text          0x00000000        0x0 /opt/microchip/mplabc32/v2.02/bin/../lib/gcc/pic32mx/4.5.1/../../../../pic32mx/lib/libmchp_peripheral_32MX795F512L.a(I2CBusIsIdle.o)

.text%z504      0x00000000        0x0
 .text          0x00000000        0x0 /opt/microchip/mplabc32/v2.02/bin/../lib/gcc/pic32mx/4.5.1/../../../../pic32mx/lib/libmchp_peripheral_32MX795F512L.a(I2CAcknowledgeByte.o)

.text%z505      0x00000000        0x0
 .text          0x00000000        0x0 /opt/microchip/mplabc32/v2.02/bin/../lib/gcc/pic32mx/4.5.1/../../../../pic32mx/lib/libmchp_peripheral_32MX795F512L.a(_ports_tbl_libp.o)

.text%z506      0x00000000        0x0
 .text          0x00000000        0x0 /opt/microchip/mplabc32/v2.02/bin/../lib/gcc/pic32mx/4.5.1/../../../../pic32mx/lib/libmchp_peripheral_32MX795F512L.a(port_set_pins_digital_out_lib.o)

.text%z507      0x00000000        0x0
 .text          0x00000000        0x0 /opt/microchip/mplabc32/v2.02/bin/../lib/gcc/pic32mx/4.5.1/../../../../pic32mx/lib/libmchp_peripheral_32MX795F512L.a(port_set_pins_digital_in_lib.o)

.text%z508      0x00000000        0x0
 .text          0x00000000        0x0 /opt/microchip/mplabc32/v2.02/bin/../lib/gcc/pic32mx/4.5.1/../../../../pic32mx/lib/libmchp_peripheral_32MX795F512L.a(nvm_write_row_lib.o)

.text%z509      0x00000000        0x0
 .text          0x00000000        0x0 /opt/microchip/mplabc32/v2.02/bin/../lib/gcc/pic32mx/4.5.1/../../../../pic32mx/lib/libmchp_peripheral_32MX795F512L.a(nvm_operation_lib.o)

.text%z510      0x00000000        0x0
 .text          0x00000000        0x0 /opt/microchip/mplabc32/v2.02/bin/../lib/gcc/pic32mx/4.5.1/../../../../pic32mx/lib/libmchp_peripheral_32MX795F512L.a(nvm_erase_page_lib.o)

.text%z511      0x00000000        0x0
 .text          0x00000000        0x0 /opt/microchip/mplabc32/v2.02/bin/../lib/gcc/pic32mx/4.5.1/../../../../pic32mx/lib/libmchp_peripheral_32MX795F512L.a(int_tbl_lib.o)

.text%z512      0x00000000        0x0
 .text          0x00000000        0x0 /opt/microchip/mplabc32/v2.02/bin/../lib/gcc/pic32mx/4.5.1/../../../../pic32mx/lib/libmchp_peripheral_32MX795F512L.a(int_enable_mv_int_lib.o)

.text%z513      0x00000000        0x0
 .text          0x00000000        0x0 /opt/microchip/mplabc32/v2.02/bin/../lib/gcc/pic32mx/4.5.1/../../../../pic32mx/lib/libmchp_peripheral_32MX795F512L.a(int_restore_interrupts_lib.o)

.text%z514      0x00000000        0x0
 .text          0x00000000        0x0 /opt/microchip/mplabc32/v2.02/bin/../lib/gcc/pic32mx/4.5.1/../../../../pic32mx/lib/libmchp_peripheral_32MX795F512L.a(int_disable_interrupts_lib.o)

.text%z515      0x00000000        0x0
 .text          0x00000000        0x0 /opt/microchip/mplabc32/v2.02/bin/../lib/gcc/pic32mx/4.5.1/../../../../pic32mx/lib/libmchp_peripheral_32MX795F512L.a(pcache.o)

.text%z516      0x00000000        0x0
 .text          0x00000000        0x0 /opt/microchip/mplabc32/v2.02/bin/../lib/gcc/pic32mx/4.5.1/../../../../pic32mx/lib/libmchp_peripheral_32MX795F512L.a(soft_reset_lib.o)

.text%z517      0x00000000        0x0
 .text          0x00000000        0x0 /opt/microchip/mplabc32/v2.02/bin/../lib/gcc/pic32mx/4.5.1/../../../../pic32mx/lib/libmchp_peripheral_32MX795F512L.a(eth_miim_legacy.o)

.text%z518      0x00000000        0x0
 .text          0x00000000        0x0 /opt/microchip/mplabc32/v2.02/bin/../lib/gcc/pic32mx/4.5.1/../../../../pic32mx/lib/libmchp_peripheral_32MX795F512L.a(eth_miim_access.o)

.text%z519      0x00000000        0x0
 .text          0x00000000        0x0 /opt/microchip/mplabc32/v2.02/bin/../lib/gcc/pic32mx/4.5.1/../../../../pic32mx/lib/libmchp_peripheral_32MX795F512L.a(_eth_append_busy_list_lib.o)

.text%z520      0x00000000        0x0
 .text          0x00000000        0x0 /opt/microchip/mplabc32/v2.02/bin/../lib/gcc/pic32mx/4.5.1/../../../../pic32mx/lib/libmchp_peripheral_32MX795F512L.a(eth_tx_packet_lib.o)

.text%z521      0x00000000        0x0
 .text          0x00000000        0x0 /opt/microchip/mplabc32/v2.02/bin/../lib/gcc/pic32mx/4.5.1/../../../../pic32mx/lib/libmchp_peripheral_32MX795F512L.a(eth_rx_set_buffer_size_lib.o)

.text%z522      0x00000000        0x0
 .text          0x00000000        0x0 /opt/microchip/mplabc32/v2.02/bin/../lib/gcc/pic32mx/4.5.1/../../../../pic32mx/lib/libmchp_peripheral_32MX795F512L.a(eth_rx_get_packet_lib.o)

.text%z523      0x00000000        0x0
 .text          0x00000000        0x0 /opt/microchip/mplabc32/v2.02/bin/../lib/gcc/pic32mx/4.5.1/../../../../pic32mx/lib/libmchp_peripheral_32MX795F512L.a(eth_rx_filters_lib.o)

.text%z524      0x00000000        0x0
 .text          0x00000000        0x0 /opt/microchip/mplabc32/v2.02/bin/../lib/gcc/pic32mx/4.5.1/../../../../pic32mx/lib/libmchp_peripheral_32MX795F512L.a(eth_rx_buffers_append_lib.o)

.text%z525      0x00000000        0x0
 .text          0x00000000        0x0 /opt/microchip/mplabc32/v2.02/bin/../lib/gcc/pic32mx/4.5.1/../../../../pic32mx/lib/libmchp_peripheral_32MX795F512L.a(eth_mac_set_address_max_lib.o)

.text%z526      0x00000000        0x0
 .text          0x00000000        0x0 /opt/microchip/mplabc32/v2.02/bin/../lib/gcc/pic32mx/4.5.1/../../../../pic32mx/lib/libmchp_peripheral_32MX795F512L.a(eth_mac_open_lib.o)

.text%z527      0x00000000        0x0
 .text          0x00000000        0x0 /opt/microchip/mplabc32/v2.02/bin/../lib/gcc/pic32mx/4.5.1/../../../../pic32mx/lib/libmchp_peripheral_32MX795F512L.a(eth_init_lib.o)

.text%z528      0x00000000        0x0
 .text          0x00000000        0x0 /opt/microchip/mplabc32/v2.02/bin/../lib/gcc/pic32mx/4.5.1/../../../../pic32mx/lib/libmchp_peripheral_32MX795F512L.a(eth_descriptors_add_lib.o)

.text%z529      0x00000000        0x0
 .text          0x00000000        0x0 /opt/microchip/mplabc32/v2.02/bin/../lib/gcc/pic32mx/4.5.1/../../../../pic32mx/lib/libmchp_peripheral_32MX795F512L.a(eth_ack_packet_lib.o)

.text%z530      0x00000000        0x0
 .text          0x00000000        0x0 /opt/microchip/mplabc32/v2.02/bin/../lib/gcc/pic32mx/4.5.1/../../../../pic32mx/lib/libmchp_peripheral.a(read_core_timer_lib.o)

.text%z531      0x00000000        0x0
 .text          0x00000000        0x0 /opt/microchip/mplabc32/v2.02/bin/../lib/gcc/pic32mx/4.5.1/../../../../pic32mx/lib/libe.a(_floatdisf.o)

.text%z532      0x00000000        0x0
 .text          0x00000000        0x0 /opt/microchip/mplabc32/v2.02/bin/../lib/gcc/pic32mx/4.5.1/../../../../pic32mx/lib/libc.a(strchr.o)

.text%z533      0x00000000        0x0
 .text          0x00000000        0x0 /opt/microchip/mplabc32/v2.02/bin/../lib/gcc/pic32mx/4.5.1/../../../../pic32mx/lib/libc.a(powers.o)

.text%z534      0x00000000        0x0
 .text          0x00000000        0x0 /opt/microchip/mplabc32/v2.02/bin/../lib/gcc/pic32mx/4.5.1/../../../../pic32mx/lib/libc.a(_flsbuf_simple.o)

.text%z535      0x00000000        0x0
 .text          0x00000000        0x0 /opt/microchip/mplabc32/v2.02/bin/../lib/gcc/pic32mx/4.5.1/../../../../pic32mx/lib/libc.a(write.o)

.text%z536      0x00000000        0x0
 .text          0x00000000        0x0 /opt/microchip/mplabc32/v2.02/bin/../lib/gcc/pic32mx/4.5.1/../../../../pic32mx/lib/libc.a(doprnt_cdfFnopsuxX.eo)

.text%z537      0x00000000        0x0
 .text          0x00000000        0x0 /opt/microchip/mplabc32/v2.02/bin/../lib/gcc/pic32mx/4.5.1/../../../../pic32mx/lib/libc.a(strspn.o)

.text%z538      0x00000000        0x0
 .text          0x00000000        0x0 /opt/microchip/mplabc32/v2.02/bin/../lib/gcc/pic32mx/4.5.1/../../../../pic32mx/lib/libc.a(strcspn.o)

.text%z539      0x00000000        0x0
 .text          0x00000000        0x0 /opt/microchip/mplabc32/v2.02/bin/../lib/gcc/pic32mx/4.5.1/../../../../pic32mx/lib/libc.a(errno.o)

.text%z540      0x00000000        0x0
 .text          0x00000000        0x0 /opt/microchip/mplabc32/v2.02/bin/../lib/gcc/pic32mx/4.5.1/../../../../pic32mx/lib/libc.a(_fputc_simple.o)

.text%z541      0x00000000        0x0
 .text          0x00000000        0x0 /opt/microchip/mplabc32/v2.02/bin/../lib/gcc/pic32mx/4.5.1/../../../../pic32mx/lib/libc.a(_iob.o)

.text%z542      0x00000000        0x0
 .text          0x00000000        0x0 /opt/microchip/mplabc32/v2.02/bin/../lib/gcc/pic32mx/4.5.1/../../../../pic32mx/lib/libc.a(default-on-bootstrap.o)

.text%z543      0x00000000        0x0
 .text          0x00000000        0x0 /opt/microchip/mplabc32/v2.02/bin/../lib/gcc/pic32mx/4.5.1/../../../../pic32mx/lib/libc.a(default-on-reset.o)

.text%z544      0x00000000        0x0
 .text          0x00000000        0x0 /opt/microchip/mplabc32/v2.02/bin/../lib/gcc/pic32mx/4.5.1/../../../../pic32mx/lib/libc.a(default-bootstrap-exception-handler.o)

.text%z545      0x00000000        0x0
 .text          0x00000000        0x0 /opt/microchip/mplabc32/v2.02/bin/../lib/gcc/pic32mx/4.5.1/../../../../pic32mx/lib/libc.a(sbrk.o)

.text%z546      0x00000000        0x0
 .text          0x00000000        0x0 /opt/microchip/mplabc32/v2.02/bin/../lib/gcc/pic32mx/4.5.1/../../../../pic32mx/lib/libc.a(sprintf_cdfFnopsuxX.eo)

.text%z547      0x00000000        0x0
 .text          0x00000000        0x0 /opt/microchip/mplabc32/v2.02/bin/../lib/gcc/pic32mx/4.5.1/../../../../pic32mx/lib/libc.a(printf_cdnopsuxX.eo)

.text%z548      0x00000000        0x0
 .text          0x00000000        0x0 /opt/microchip/mplabc32/v2.02/bin/../lib/gcc/pic32mx/4.5.1/../../../../pic32mx/lib/libc.a(strtok.o)

.text%z549      0x00000000        0x0
 .text          0x00000000        0x0 /opt/microchip/mplabc32/v2.02/bin/../lib/gcc/pic32mx/4.5.1/../../../../pic32mx/lib/libc.a(rand.o)

.text%z550      0x00000000        0x0
 .text          0x00000000        0x0 /opt/microchip/mplabc32/v2.02/bin/../lib/gcc/pic32mx/4.5.1/../../../../pic32mx/lib/libc.a(puts.o)

.text%z551      0x00000000        0x0
 .text          0x00000000        0x0 /opt/microchip/mplabc32/v2.02/bin/../lib/gcc/pic32mx/4.5.1/../../../../pic32mx/lib/libc.a(malloc.o)

.text%z552      0x00000000        0x0
 .text          0x00000000        0x0 /opt/microchip/mplabc32/v2.02/bin/../lib/gcc/pic32mx/4.5.1/../../../../pic32mx/lib/libc.a(ctype.o)

.text%z553      0x00000000        0x0
 .text          0x00000000        0x0 /opt/microchip/mplabc32/v2.02/bin/../lib/gcc/pic32mx/4.5.1/../../../../pic32mx/lib/libc.a(c32_uart.o)

.text%z554      0x00000000        0x0
 .text          0x00000000        0x0 /opt/microchip/mplabc32/v2.02/bin/../lib/gcc/pic32mx/4.5.1/../../../../pic32mx/lib/libc.a(atoi.o)

.text%z555      0x00000000        0x0
 .text          0x00000000        0x0 /opt/microchip/mplabc32/v2.02/bin/../lib/gcc/pic32mx/4.5.1/../../../../pic32mx/lib/libc.a(general-exception.o)

.text%z556      0x00000000        0x0
 .text          0x00000000        0x0 /opt/microchip/mplabc32/v2.02/bin/../lib/gcc/pic32mx/4.5.1/../../../../pic32mx/lib/libdebug.a(db_utils.o)

.text%z557      0x00000000        0x0
 .text          0x00000000        0x0 build/Debug/debug/_ext/867694782/ARCFOUR.o

.text%z558      0x00000000        0x0
 .text          0x00000000        0x0 build/Debug/debug/_ext/867694782/UDPPerformanceTest.o

.text%z559      0x00000000        0x0
 .text          0x00000000        0x0 build/Debug/debug/_ext/867694782/DynDNS.o

.text%z560      0x00000000        0x0
 .text          0x00000000        0x0 build/Debug/debug/_ext/867694782/MPFS2.o

.text%z561      0x00000000        0x0
 .text          0x00000000        0x0 build/Debug/debug/_ext/867694782/MPFS.o

.text%z562      0x00000000        0x0
 .text          0x00000000        0x0 build/Debug/debug/_ext/867694782/Random.o

.text%z563      0x00000000        0x0
 .text          0x00000000        0x0 build/Debug/debug/_ext/867694782/Telnet.o

.text%z564      0x00000000        0x0
 .text          0x00000000        0x0 build/Debug/debug/_ext/867694782/SMTP.o

.text%z565      0x00000000        0x0
 .text          0x00000000        0x0 build/Debug/debug/_ext/867694782/ZeroconfLinkLocal.o

.text%z566      0x00000000        0x0
 .text          0x00000000        0x0 build/Debug/debug/_ext/867694782/ETH97J60.o

.text%z567      0x00000000        0x0
 .text          0x00000000        0x0 build/Debug/debug/_ext/867694782/DNS.o

.text%z568      0x00000000        0x0
 .text          0x00000000        0x0 build/Debug/debug/_ext/867694782/BigInt.o

.text%z569      0x00000000        0x0
 .text          0x00000000        0x0 build/Debug/debug/_ext/867694782/DNSs.o

.text%z570      0x00000000        0x0
 .text          0x00000000        0x0 build/Debug/debug/_ext/867694782/SPIFlash.o

.text%z571      0x00000000        0x0
 .text          0x00000000        0x0 build/Debug/debug/_ext/867694782/SSL.o

.text%z572      0x00000000        0x0
 .text          0x00000000        0x0 build/Debug/debug/_ext/867694782/SPIEEPROM.o

.text%z573      0x00000000        0x0
 .text          0x00000000        0x0 build/Debug/debug/_ext/867694782/Reboot.o

.text%z574      0x00000000        0x0
 .text          0x00000000        0x0 build/Debug/debug/_ext/867694782/DHCPs.o

.text%z575      0x00000000        0x0
 .text          0x00000000        0x0 build/Debug/debug/_ext/867694782/AutoIP.o

.text%z576      0x00000000        0x0
 .text          0x00000000        0x0 build/Debug/debug/_ext/867694782/UART2TCPBridge.o

.text%z577      0x00000000        0x0
 .text          0x00000000        0x0 build/Debug/debug/_ext/867694782/TCPPerformanceTest.o

.text%z578      0x00000000        0x0
 .text          0x00000000        0x0 build/Debug/debug/_ext/867694782/ENCX24J600.o

.text%z579      0x00000000        0x0
 .text          0x00000000        0x0 build/Debug/debug/_ext/867694782/NBNS.o

.text%z580      0x00000000        0x0
 .text          0x00000000        0x0 build/Debug/debug/_ext/867694782/ZeroconfMulticastDNS.o

.text%z581      0x00000000        0x0
 .text          0x00000000        0x0 build/Debug/debug/_ext/867694782/HTTP2.o

.text%z582      0x00000000        0x0
 .text          0x00000000        0x0 build/Debug/debug/_ext/867694782/ZeroconfHelper.o

.text%z583      0x00000000        0x0
 .text          0x00000000        0x0 build/Debug/debug/_ext/867694782/UART.o

.text%z584      0x00000000        0x0
 .text          0x00000000        0x0 build/Debug/debug/_ext/867694782/RSA.o

.text%z585      0x00000000        0x0
 .text          0x00000000        0x0 build/Debug/debug/_ext/867694782/SNTP.o

.text%z586      0x00000000        0x0
 .text          0x00000000        0x0 build/Debug/debug/_ext/867694782/HTTP.o

.text%z587      0x00000000        0x0
 .text          0x00000000        0x0 build/Debug/debug/_ext/867694782/LCDBlocking.o

.text%z588      0x00000000        0x0
 .text          0x00000000        0x0 build/Debug/debug/_ext/867694782/Hashes.o

.text%z589      0x00000000        0x0
 .text          0x00000000        0x0 build/Debug/debug/_ext/867694782/SNMP.o

.text%z590      0x00000000        0x0
 .text          0x00000000        0x0 build/Debug/debug/_ext/867694782/SPIRAM.o

.text%z591      0x00000000        0x0
 .text          0x00000000        0x0 build/Debug/debug/_ext/867694782/ENC28J60.o

.text%z592      0x00000000        0x0
 .text          0x00000000        0x0 build/Debug/debug/_ext/867694782/FTP.o

.text%z593      0x00000000        0x0
 .text          0x00000000        0x0 build/Debug/debug/_ext/867694782/CAN2TCPBridge.o

.text%z594      0x00000000        0x0
 .text          0x00000000        0x0 build/Debug/debug/_ext/100901378/WFConsoleMsgs.o

.text%z595      0x00000000        0x0
 .text          0x00000000        0x0 build/Debug/debug/_ext/100901378/WFMgmtMsg.o

.text%z596      0x00000000        0x0
 .text          0x00000000        0x0 build/Debug/debug/_ext/100901378/WFDataTxRx.o

.text%z597      0x00000000        0x0
 .text          0x00000000        0x0 build/Debug/debug/_ext/100901378/WFConnectionAlgorithm.o

.text%z598      0x00000000        0x0
 .text          0x00000000        0x0 build/Debug/debug/_ext/100901378/WFConsoleIfconfig.o

.text%z599      0x00000000        0x0
 .text          0x00000000        0x0 build/Debug/debug/_ext/100901378/WFConsoleIwconfig.o

.text%z600      0x00000000        0x0
 .text          0x00000000        0x0 build/Debug/debug/_ext/100901378/WFEventHandler.o

.text%z601      0x00000000        0x0
 .text          0x00000000        0x0 build/Debug/debug/_ext/100901378/WFConsoleMsgHandler.o

.text%z602      0x00000000        0x0
 .text          0x00000000        0x0 build/Debug/debug/_ext/100901378/WFInit.o

.text%z603      0x00000000        0x0
 .text          0x00000000        0x0 build/Debug/debug/_ext/100901378/WFTxPower.o

.text%z604      0x00000000        0x0
 .text          0x00000000        0x0 build/Debug/debug/_ext/100901378/WFConsoleIwpriv.o

.text%z605      0x00000000        0x0
 .text          0x00000000        0x0 build/Debug/debug/_ext/100901378/WFConnectionProfile.o

.text%z606      0x00000000        0x0
 .text          0x00000000        0x0 build/Debug/debug/_ext/100901378/WFParamMsg.o

.text%z607      0x00000000        0x0
 .text          0x00000000        0x0 build/Debug/debug/_ext/100901378/WFPowerSave.o

.text%z608      0x00000000        0x0
 .text          0x00000000        0x0 build/Debug/debug/_ext/100901378/WFConnectionManager.o

.text%z609      0x00000000        0x0
 .text          0x00000000        0x0 build/Debug/debug/_ext/100901378/WFConsole.o

.text%z610      0x00000000        0x0
 .text          0x00000000        0x0 build/Debug/debug/_ext/100901378/WFEasyConfig.o

.text%z611      0x00000000        0x0
 .text          0x00000000        0x0 build/Debug/debug/_ext/100901378/WFScan.o
